; ModuleID = '/home/sidmontu/Xilinx_Projects/daco_wrapper/wrapper/solution1/.autopilot/db/a.o.3.bc'
target datalayout = "e-p:64:64:64-i1:8:8-i8:8:8-i16:16:16-i32:32:32-i64:64:64-f32:32:32-f64:64:64-v64:64:64-v128:128:128-a0:0:64-s0:64:64-f80:128:128-n8:16:32:64-S128"
target triple = "x86_64-unknown-linux-gnu"

@packet2daco_vld = internal unnamed_addr global i1 false, align 1 ; [#uses=2 type=i1*]
@llvm_global_ctors_1 = appending global [0 x void ()*] zeroinitializer ; [#uses=0 type=[0 x void ()*]*]
@llvm_global_ctors_0 = appending global [0 x i32] zeroinitializer ; [#uses=0 type=[0 x i32]*]
@controller_str = internal unnamed_addr constant [11 x i8] c"controller\00" ; [#uses=1 type=[11 x i8]*]
@p_str4 = private unnamed_addr constant [5 x i8] c"both\00", align 1 ; [#uses=1 type=[5 x i8]*]
@p_str3 = private unnamed_addr constant [5 x i8] c"axis\00", align 1 ; [#uses=1 type=[5 x i8]*]
@p_str2 = private unnamed_addr constant [10 x i8] c"s_axilite\00", align 1 ; [#uses=3 type=[10 x i8]*]
@p_str1 = private unnamed_addr constant [1 x i8] zeroinitializer, align 1 ; [#uses=29 type=[1 x i8]*]
@p_str = private unnamed_addr constant [13 x i8] c"ap_ctrl_none\00", align 1 ; [#uses=1 type=[13 x i8]*]

; [#uses=17]
declare void @llvm.dbg.value(metadata, i64, metadata) nounwind readnone

; [#uses=0]
define void @controller(i2 %config_V, i28 %packet2controller_V, i32* %packet2host_V, i1* %controller2host_ack, i28 %daco2controller_V, i28* %packet2daco_V, i2* %config_out_V, i1 zeroext %daco2controller_ack) {
  call void (...)* @_ssdm_op_SpecBitsMap(i2 %config_V), !map !53
  call void (...)* @_ssdm_op_SpecBitsMap(i28 %packet2controller_V), !map !59
  call void (...)* @_ssdm_op_SpecBitsMap(i32* %packet2host_V), !map !63
  call void (...)* @_ssdm_op_SpecBitsMap(i1* %controller2host_ack), !map !67
  call void (...)* @_ssdm_op_SpecBitsMap(i28 %daco2controller_V), !map !71
  call void (...)* @_ssdm_op_SpecBitsMap(i28* %packet2daco_V), !map !75
  call void (...)* @_ssdm_op_SpecBitsMap(i2* %config_out_V), !map !79
  call void (...)* @_ssdm_op_SpecBitsMap(i1 %daco2controller_ack), !map !83
  call void (...)* @_ssdm_op_SpecTopModule([11 x i8]* @controller_str) nounwind
  %daco2controller_ack_s = call i1 @_ssdm_op_Read.ap_auto.i1(i1 %daco2controller_ack) ; [#uses=1 type=i1]
  call void @llvm.dbg.value(metadata !{i1 %daco2controller_ack_s}, i64 0, metadata !87), !dbg !877 ; [debug line = 16:7] [debug variable = daco2controller_ack]
  %daco2controller_V_re = call i28 @_ssdm_op_Read.ap_auto.i28(i28 %daco2controller_V) ; [#uses=2 type=i28]
  call void @llvm.dbg.value(metadata !{i28 %daco2controller_V_re}, i64 0, metadata !878), !dbg !888 ; [debug line = 280:84@42:3] [debug variable = op2.V]
  %packet2controller_V_s = call i28 @_ssdm_op_Read.s_axilite.i28(i28 %packet2controller_V) ; [#uses=2 type=i28]
  call void @llvm.dbg.value(metadata !{i28 %packet2controller_V_s}, i64 0, metadata !878), !dbg !892 ; [debug line = 280:84@32:4] [debug variable = op2.V]
  %config_V_read = call i2 @_ssdm_op_Read.s_axilite.i2(i2 %config_V) ; [#uses=2 type=i2]
  call void @llvm.dbg.value(metadata !{i2 %config_V_read}, i64 0, metadata !896), !dbg !906 ; [debug line = 280:84@24:2] [debug variable = op2.V]
  call void @llvm.dbg.value(metadata !{i32* %packet2host_V}, i64 0, metadata !908), !dbg !910 ; [debug line = 11:12] [debug variable = packet2host.V]
  call void @llvm.dbg.value(metadata !{i1* %controller2host_ack}, i64 0, metadata !911), !dbg !912 ; [debug line = 12:8] [debug variable = controller2host_ack]
  call void @llvm.dbg.value(metadata !{i28* %packet2daco_V}, i64 0, metadata !913), !dbg !915 ; [debug line = 14:12] [debug variable = packet2daco.V]
  call void @llvm.dbg.value(metadata !{i2* %config_out_V}, i64 0, metadata !916), !dbg !918 ; [debug line = 15:12] [debug variable = config_out.V]
  call void @llvm.dbg.value(metadata !{i1 %daco2controller_ack}, i64 0, metadata !87), !dbg !877 ; [debug line = 16:7] [debug variable = daco2controller_ack]
  call void (...)* @_ssdm_op_SpecInterface(i32 0, [13 x i8]* @p_str, i32 0, i32 0, [1 x i8]* @p_str1, i32 0, i32 0, [1 x i8]* @p_str1, [1 x i8]* @p_str1, [1 x i8]* @p_str1, i32 0, i32 0, i32 0, i32 0, [1 x i8]* @p_str1, [1 x i8]* @p_str1) nounwind, !dbg !919 ; [debug line = 18:1]
  call void (...)* @_ssdm_op_SpecInterface(i2 %config_V, [10 x i8]* @p_str2, i32 0, i32 0, [1 x i8]* @p_str1, i32 0, i32 0, [1 x i8]* @p_str1, [1 x i8]* @p_str1, [1 x i8]* @p_str1, i32 0, i32 0, i32 0, i32 0, [1 x i8]* @p_str1, [1 x i8]* @p_str1) nounwind, !dbg !920 ; [debug line = 19:1]
  call void (...)* @_ssdm_op_SpecInterface(i28 %packet2controller_V, [10 x i8]* @p_str2, i32 0, i32 0, [1 x i8]* @p_str1, i32 0, i32 0, [1 x i8]* @p_str1, [1 x i8]* @p_str1, [1 x i8]* @p_str1, i32 0, i32 0, i32 0, i32 0, [1 x i8]* @p_str1, [1 x i8]* @p_str1) nounwind, !dbg !921 ; [debug line = 20:1]
  call void (...)* @_ssdm_op_SpecInterface(i32* %packet2host_V, [5 x i8]* @p_str3, i32 1, i32 1, [5 x i8]* @p_str4, i32 0, i32 0, [1 x i8]* @p_str1, [1 x i8]* @p_str1, [1 x i8]* @p_str1, i32 0, i32 0, i32 0, i32 0, [1 x i8]* @p_str1, [1 x i8]* @p_str1), !dbg !922 ; [debug line = 21:1]
  call void (...)* @_ssdm_op_SpecInterface(i1* %controller2host_ack, [10 x i8]* @p_str2, i32 0, i32 0, [1 x i8]* @p_str1, i32 0, i32 0, [1 x i8]* @p_str1, [1 x i8]* @p_str1, [1 x i8]* @p_str1, i32 0, i32 0, i32 0, i32 0, [1 x i8]* @p_str1, [1 x i8]* @p_str1) nounwind, !dbg !923 ; [debug line = 22:1]
  call void @llvm.dbg.value(metadata !{i2* %config_out_V}, i64 0, metadata !924), !dbg !928 ; [debug line = 280:50@24:2] [debug variable = ssdm_int<2 + 1024 * 0, false>.V]
  call void @llvm.dbg.value(metadata !{i2 %config_V}, i64 0, metadata !896), !dbg !906 ; [debug line = 280:84@24:2] [debug variable = op2.V]
  call void @_ssdm_op_Write.ap_auto.i2P(i2* %config_out_V, i2 %config_V_read), !dbg !929 ; [debug line = 281:5@24:2]
  %tmp_1 = icmp eq i2 %config_V_read, 1, !dbg !931 ; [#uses=1 type=i1] [debug line = 2034:5@3559:0@29:6]
  br i1 %tmp_1, label %1, label %._crit_edge, !dbg !1484 ; [debug line = 29:6]

; <label>:1                                       ; preds = %0
  call void @llvm.dbg.value(metadata !{i28 %packet2controller_V}, i64 0, metadata !1485), !dbg !1489 ; [debug line = 941:79@1538:15@1539:3@3822:145@31:7] [debug variable = __Val2__]
  %tmp_2 = trunc i28 %packet2controller_V_s to i1, !dbg !1505 ; [#uses=1 type=i1] [debug line = 941:81@1538:15@1539:3@3822:145@31:7]
  br i1 %tmp_2, label %2, label %._crit_edge52, !dbg !1504 ; [debug line = 31:7]

; <label>:2                                       ; preds = %1
  %packet2daco_vld_load = load i1* @packet2daco_vld, align 1, !dbg !1504 ; [#uses=1 type=i1] [debug line = 31:7]
  %p_not = xor i1 %packet2daco_vld_load, true, !dbg !1504 ; [#uses=1 type=i1] [debug line = 31:7]
  %or_cond = or i1 %daco2controller_ack_s, %p_not, !dbg !1504 ; [#uses=1 type=i1] [debug line = 31:7]
  br i1 %or_cond, label %3, label %._crit_edge52, !dbg !1504 ; [debug line = 31:7]

; <label>:3                                       ; preds = %2
  call void @llvm.dbg.value(metadata !{i28* %packet2daco_V}, i64 0, metadata !1506), !dbg !1510 ; [debug line = 280:50@32:4] [debug variable = ssdm_int<28 + 1024 * 0, false>.V]
  call void @llvm.dbg.value(metadata !{i28 %packet2controller_V}, i64 0, metadata !878), !dbg !892 ; [debug line = 280:84@32:4] [debug variable = op2.V]
  call void @_ssdm_op_Write.ap_auto.i28P(i28* %packet2daco_V, i28 %packet2controller_V_s), !dbg !1511 ; [debug line = 281:5@32:4]
  call void @_ssdm_op_Write.s_axilite.i1P(i1* %controller2host_ack, i1 true), !dbg !1513 ; [debug line = 33:4]
  store i1 true, i1* @packet2daco_vld, align 1, !dbg !1514 ; [debug line = 34:4]
  br label %4, !dbg !1515                         ; [debug line = 35:3]

._crit_edge52:                                    ; preds = %2, %1
  call void @_ssdm_op_Write.s_axilite.i1P(i1* %controller2host_ack, i1 false), !dbg !1516 ; [debug line = 36:4]
  br label %4

; <label>:4                                       ; preds = %._crit_edge52, %3
  br label %._crit_edge, !dbg !1518               ; [debug line = 38:2]

._crit_edge:                                      ; preds = %4, %0
  call void @llvm.dbg.value(metadata !{i28 %daco2controller_V}, i64 0, metadata !1485), !dbg !1519 ; [debug line = 941:79@1538:15@1539:3@3822:145@41:6] [debug variable = __Val2__]
  %tmp_3 = trunc i28 %daco2controller_V_re to i1, !dbg !1524 ; [#uses=1 type=i1] [debug line = 941:81@1538:15@1539:3@3822:145@41:6]
  br i1 %tmp_3, label %5, label %._crit_edge54, !dbg !1523 ; [debug line = 41:6]

; <label>:5                                       ; preds = %._crit_edge
  call void @llvm.dbg.value(metadata !{i32* %packet2host_V}, i64 0, metadata !1506), !dbg !1525 ; [debug line = 280:50@42:3] [debug variable = ssdm_int<28 + 1024 * 0, false>.V]
  call void @llvm.dbg.value(metadata !{i28 %daco2controller_V}, i64 0, metadata !878), !dbg !888 ; [debug line = 280:84@42:3] [debug variable = op2.V]
  %tmp = zext i28 %daco2controller_V_re to i32    ; [#uses=1 type=i32]
  call void @_ssdm_op_Write.axis.i32P(i32* %packet2host_V, i32 %tmp)
  br label %._crit_edge54, !dbg !1526             ; [debug line = 43:2]

._crit_edge54:                                    ; preds = %5, %._crit_edge
  ret void, !dbg !1527                            ; [debug line = 45:2]
}

; [#uses=2]
define weak void @_ssdm_op_Write.s_axilite.i1P(i1*, i1) {
entry:
  store i1 %1, i1* %0
  ret void
}

; [#uses=1]
define weak void @_ssdm_op_Write.axis.i32P(i32*, i32) {
entry:
  store i32 %1, i32* %0
  ret void
}

; [#uses=1]
define weak void @_ssdm_op_Write.ap_auto.i2P(i2*, i2) {
entry:
  store i2 %1, i2* %0
  ret void
}

; [#uses=1]
define weak void @_ssdm_op_Write.ap_auto.i28P(i28*, i28) {
entry:
  store i28 %1, i28* %0
  ret void
}

; [#uses=1]
define weak void @_ssdm_op_SpecTopModule(...) {
entry:
  ret void
}

; [#uses=5]
define weak void @_ssdm_op_SpecInterface(...) nounwind {
entry:
  ret void
}

; [#uses=8]
define weak void @_ssdm_op_SpecBitsMap(...) {
entry:
  ret void
}

; [#uses=1]
define weak i28 @_ssdm_op_Read.s_axilite.i28(i28) {
entry:
  ret i28 %0
}

; [#uses=1]
define weak i2 @_ssdm_op_Read.s_axilite.i2(i2) {
entry:
  ret i2 %0
}

; [#uses=1]
define weak i28 @_ssdm_op_Read.ap_auto.i28(i28) {
entry:
  ret i28 %0
}

; [#uses=1]
define weak i1 @_ssdm_op_Read.ap_auto.i1(i1) {
entry:
  ret i1 %0
}

; [#uses=0]
declare i1 @_ssdm_op_PartSelect.i1.i28.i32.i32(i28, i32, i32) nounwind readnone

!opencl.kernels = !{!0, !7, !13, !19, !19, !22, !28, !30, !30, !22, !22, !22, !22, !33, !36, !36, !42, !28, !44}
!hls.encrypted.func = !{}
!llvm.map.gv = !{!46}

!0 = metadata !{null, metadata !1, metadata !2, metadata !3, metadata !4, metadata !5, metadata !6}
!1 = metadata !{metadata !"kernel_arg_addr_space", i32 0, i32 0, i32 0, i32 0, i32 0, i32 0, i32 0, i32 0}
!2 = metadata !{metadata !"kernel_arg_access_qual", metadata !"none", metadata !"none", metadata !"none", metadata !"none", metadata !"none", metadata !"none", metadata !"none", metadata !"none"}
!3 = metadata !{metadata !"kernel_arg_type", metadata !"config_t", metadata !"packet_t", metadata !"packet_t &", metadata !"_Bool &", metadata !"packet_t", metadata !"packet_t &", metadata !"config_t &", metadata !"_Bool"}
!4 = metadata !{metadata !"kernel_arg_type_qual", metadata !"", metadata !"", metadata !"", metadata !"", metadata !"", metadata !"", metadata !"", metadata !""}
!5 = metadata !{metadata !"kernel_arg_name", metadata !"config", metadata !"packet2controller", metadata !"packet2host", metadata !"controller2host_ack", metadata !"daco2controller", metadata !"packet2daco", metadata !"config_out", metadata !"daco2controller_ack"}
!6 = metadata !{metadata !"reqd_work_group_size", i32 1, i32 1, i32 1}
!7 = metadata !{null, metadata !8, metadata !9, metadata !10, metadata !11, metadata !12, metadata !6}
!8 = metadata !{metadata !"kernel_arg_addr_space", i32 0}
!9 = metadata !{metadata !"kernel_arg_access_qual", metadata !"none"}
!10 = metadata !{metadata !"kernel_arg_type", metadata !"const ap_uint<28> &"}
!11 = metadata !{metadata !"kernel_arg_type_qual", metadata !""}
!12 = metadata !{metadata !"kernel_arg_name", metadata !"op2"}
!13 = metadata !{null, metadata !14, metadata !15, metadata !16, metadata !17, metadata !18, metadata !6}
!14 = metadata !{metadata !"kernel_arg_addr_space", i32 0, i32 0}
!15 = metadata !{metadata !"kernel_arg_access_qual", metadata !"none", metadata !"none"}
!16 = metadata !{metadata !"kernel_arg_type", metadata !"const ap_range_ref<28, false> &", metadata !"int"}
!17 = metadata !{metadata !"kernel_arg_type_qual", metadata !"", metadata !""}
!18 = metadata !{metadata !"kernel_arg_name", metadata !"op", metadata !"op2"}
!19 = metadata !{null, metadata !8, metadata !9, metadata !20, metadata !11, metadata !21, metadata !6}
!20 = metadata !{metadata !"kernel_arg_type", metadata !"int"}
!21 = metadata !{metadata !"kernel_arg_name", metadata !"op"}
!22 = metadata !{null, metadata !23, metadata !24, metadata !25, metadata !26, metadata !27, metadata !6}
!23 = metadata !{metadata !"kernel_arg_addr_space"}
!24 = metadata !{metadata !"kernel_arg_access_qual"}
!25 = metadata !{metadata !"kernel_arg_type"}
!26 = metadata !{metadata !"kernel_arg_type_qual"}
!27 = metadata !{metadata !"kernel_arg_name"}
!28 = metadata !{null, metadata !8, metadata !9, metadata !29, metadata !11, metadata !12, metadata !6}
!29 = metadata !{metadata !"kernel_arg_type", metadata !"const ap_int_base<32, true> &"}
!30 = metadata !{null, metadata !8, metadata !9, metadata !31, metadata !11, metadata !32, metadata !6}
!31 = metadata !{metadata !"kernel_arg_type", metadata !"const ap_range_ref<28, false> &"}
!32 = metadata !{metadata !"kernel_arg_name", metadata !"ref"}
!33 = metadata !{null, metadata !14, metadata !15, metadata !34, metadata !17, metadata !35, metadata !6}
!34 = metadata !{metadata !"kernel_arg_type", metadata !"int", metadata !"int"}
!35 = metadata !{metadata !"kernel_arg_name", metadata !"Hi", metadata !"Lo"}
!36 = metadata !{null, metadata !37, metadata !38, metadata !39, metadata !40, metadata !41, metadata !6}
!37 = metadata !{metadata !"kernel_arg_addr_space", i32 1, i32 0, i32 0}
!38 = metadata !{metadata !"kernel_arg_access_qual", metadata !"none", metadata !"none", metadata !"none"}
!39 = metadata !{metadata !"kernel_arg_type", metadata !"ap_int_base<28, false>*", metadata !"int", metadata !"int"}
!40 = metadata !{metadata !"kernel_arg_type_qual", metadata !"", metadata !"", metadata !""}
!41 = metadata !{metadata !"kernel_arg_name", metadata !"bv", metadata !"h", metadata !"l"}
!42 = metadata !{null, metadata !14, metadata !15, metadata !43, metadata !17, metadata !18, metadata !6}
!43 = metadata !{metadata !"kernel_arg_type", metadata !"const ap_int_base<2, false> &", metadata !"int"}
!44 = metadata !{null, metadata !8, metadata !9, metadata !45, metadata !11, metadata !12, metadata !6}
!45 = metadata !{metadata !"kernel_arg_type", metadata !"const ap_uint<2> &"}
!46 = metadata !{metadata !47, [0 x i32]* @llvm_global_ctors_0}
!47 = metadata !{metadata !48}
!48 = metadata !{i32 0, i32 31, metadata !49}
!49 = metadata !{metadata !50}
!50 = metadata !{metadata !"llvm.global_ctors.0", metadata !51, metadata !"", i32 0, i32 31}
!51 = metadata !{metadata !52}
!52 = metadata !{i32 0, i32 0, i32 1}
!53 = metadata !{metadata !54}
!54 = metadata !{i32 0, i32 1, metadata !55}
!55 = metadata !{metadata !56}
!56 = metadata !{metadata !"config.V", metadata !57, metadata !"uint2", i32 0, i32 1}
!57 = metadata !{metadata !58}
!58 = metadata !{i32 0, i32 0, i32 0}
!59 = metadata !{metadata !60}
!60 = metadata !{i32 0, i32 27, metadata !61}
!61 = metadata !{metadata !62}
!62 = metadata !{metadata !"packet2controller.V", metadata !57, metadata !"uint28", i32 0, i32 27}
!63 = metadata !{metadata !64}
!64 = metadata !{i32 0, i32 27, metadata !65}
!65 = metadata !{metadata !66}
!66 = metadata !{metadata !"packet2host.V", metadata !51, metadata !"uint28", i32 0, i32 27}
!67 = metadata !{metadata !68}
!68 = metadata !{i32 0, i32 0, metadata !69}
!69 = metadata !{metadata !70}
!70 = metadata !{metadata !"controller2host_ack", metadata !51, metadata !"bool", i32 0, i32 0}
!71 = metadata !{metadata !72}
!72 = metadata !{i32 0, i32 27, metadata !73}
!73 = metadata !{metadata !74}
!74 = metadata !{metadata !"daco2controller.V", metadata !57, metadata !"uint28", i32 0, i32 27}
!75 = metadata !{metadata !76}
!76 = metadata !{i32 0, i32 27, metadata !77}
!77 = metadata !{metadata !78}
!78 = metadata !{metadata !"packet2daco.V", metadata !51, metadata !"uint28", i32 0, i32 27}
!79 = metadata !{metadata !80}
!80 = metadata !{i32 0, i32 1, metadata !81}
!81 = metadata !{metadata !82}
!82 = metadata !{metadata !"config_out.V", metadata !51, metadata !"uint2", i32 0, i32 1}
!83 = metadata !{metadata !84}
!84 = metadata !{i32 0, i32 0, metadata !85}
!85 = metadata !{metadata !86}
!86 = metadata !{metadata !"daco2controller_ack", metadata !57, metadata !"bool", i32 0, i32 0}
!87 = metadata !{i32 786689, metadata !88, metadata !"daco2controller_ack", metadata !89, i32 134217744, metadata !116, i32 0, i32 0} ; [ DW_TAG_arg_variable ]
!88 = metadata !{i32 786478, i32 0, metadata !89, metadata !"controller", metadata !"controller", metadata !"_Z10controller7ap_uintILi2EES_ILi28EERS1_RbS1_S2_RS0_b", metadata !89, i32 8, metadata !90, i1 false, i1 true, i32 0, i32 0, null, i32 256, i1 false, null, null, null, metadata !110, i32 17} ; [ DW_TAG_subprogram ]
!89 = metadata !{i32 786473, metadata !"wrapper/solution1/controller.cpp", metadata !"/home/sidmontu/Xilinx_Projects/daco_wrapper", null} ; [ DW_TAG_file_type ]
!90 = metadata !{i32 786453, i32 0, metadata !"", i32 0, i32 0, i64 0, i64 0, i64 0, i32 0, null, metadata !91, i32 0, i32 0} ; [ DW_TAG_subroutine_type ]
!91 = metadata !{null, metadata !92, metadata !492, metadata !874, metadata !875, metadata !492, metadata !874, metadata !876, metadata !116}
!92 = metadata !{i32 786454, null, metadata !"config_t", metadata !89, i32 5, i64 0, i64 0, i64 0, i32 0, metadata !93} ; [ DW_TAG_typedef ]
!93 = metadata !{i32 786434, null, metadata !"ap_uint<2>", metadata !94, i32 183, i64 8, i64 8, i32 0, i32 0, null, metadata !95, i32 0, null, metadata !491} ; [ DW_TAG_class_type ]
!94 = metadata !{i32 786473, metadata !"/opt/Xilinx/Vivado/2017.4/common/technology/autopilot/ap_int.h", metadata !"/home/sidmontu/Xilinx_Projects/daco_wrapper", null} ; [ DW_TAG_file_type ]
!95 = metadata !{metadata !96, metadata !420, metadata !424, metadata !427, metadata !430, metadata !433, metadata !436, metadata !439, metadata !442, metadata !445, metadata !448, metadata !451, metadata !454, metadata !457, metadata !460, metadata !463, metadata !466, metadata !469, metadata !472, metadata !479, metadata !484, metadata !488}
!96 = metadata !{i32 786460, metadata !93, null, metadata !94, i32 0, i64 0, i64 0, i64 0, i32 0, metadata !97} ; [ DW_TAG_inheritance ]
!97 = metadata !{i32 786434, null, metadata !"ap_int_base<2, false, true>", metadata !98, i32 1453, i64 8, i64 8, i32 0, i32 0, null, metadata !99, i32 0, null, metadata !418} ; [ DW_TAG_class_type ]
!98 = metadata !{i32 786473, metadata !"/opt/Xilinx/Vivado/2017.4/common/technology/autopilot/ap_int_syn.h", metadata !"/home/sidmontu/Xilinx_Projects/daco_wrapper", null} ; [ DW_TAG_file_type ]
!99 = metadata !{metadata !100, metadata !117, metadata !121, metadata !129, metadata !135, metadata !138, metadata !142, metadata !146, metadata !150, metadata !154, metadata !157, metadata !161, metadata !165, metadata !169, metadata !174, metadata !179, metadata !184, metadata !188, metadata !192, metadata !198, metadata !201, metadata !205, metadata !208, metadata !211, metadata !212, metadata !216, metadata !219, metadata !222, metadata !225, metadata !228, metadata !231, metadata !234, metadata !237, metadata !240, metadata !243, metadata !246, metadata !249, metadata !259, metadata !262, metadata !265, metadata !268, metadata !271, metadata !274, metadata !277, metadata !280, metadata !283, metadata !286, metadata !289, metadata !292, metadata !295, metadata !296, metadata !300, metadata !303, metadata !304, metadata !305, metadata !306, metadata !307, metadata !308, metadata !311, metadata !312, metadata !315, metadata !316, metadata !317, metadata !318, metadata !319, metadata !320, metadata !323, metadata !324, metadata !325, metadata !328, metadata !329, metadata !332, metadata !333, metadata !337, metadata !341, metadata !342, metadata !345, metadata !346, metadata !385, metadata !386, metadata !387, metadata !388, metadata !391, metadata !392, metadata !393, metadata !394, metadata !395, metadata !396, metadata !397, metadata !398, metadata !399, metadata !400, metadata !401, metadata !402, metadata !412, metadata !415}
!100 = metadata !{i32 786460, metadata !97, null, metadata !98, i32 0, i64 0, i64 0, i64 0, i32 0, metadata !101} ; [ DW_TAG_inheritance ]
!101 = metadata !{i32 786434, null, metadata !"ssdm_int<2 + 1024 * 0, false>", metadata !102, i32 4, i64 8, i64 8, i32 0, i32 0, null, metadata !103, i32 0, null, metadata !112} ; [ DW_TAG_class_type ]
!102 = metadata !{i32 786473, metadata !"/opt/Xilinx/Vivado/2017.4/common/technology/autopilot/etc/autopilot_dt.def", metadata !"/home/sidmontu/Xilinx_Projects/daco_wrapper", null} ; [ DW_TAG_file_type ]
!103 = metadata !{metadata !104, metadata !106}
!104 = metadata !{i32 786445, metadata !101, metadata !"V", metadata !102, i32 4, i64 2, i64 2, i64 0, i32 0, metadata !105} ; [ DW_TAG_member ]
!105 = metadata !{i32 786468, null, metadata !"uint2", null, i32 0, i64 2, i64 2, i64 0, i32 0, i32 7} ; [ DW_TAG_base_type ]
!106 = metadata !{i32 786478, i32 0, metadata !101, metadata !"ssdm_int", metadata !"ssdm_int", metadata !"", metadata !102, i32 4, metadata !107, i1 false, i1 false, i32 0, i32 0, null, i32 256, i1 false, null, null, i32 0, metadata !110, i32 4} ; [ DW_TAG_subprogram ]
!107 = metadata !{i32 786453, i32 0, metadata !"", i32 0, i32 0, i64 0, i64 0, i64 0, i32 0, null, metadata !108, i32 0, i32 0} ; [ DW_TAG_subroutine_type ]
!108 = metadata !{null, metadata !109}
!109 = metadata !{i32 786447, i32 0, metadata !"", i32 0, i32 0, i64 64, i64 64, i64 0, i32 64, metadata !101} ; [ DW_TAG_pointer_type ]
!110 = metadata !{metadata !111}
!111 = metadata !{i32 786468}                     ; [ DW_TAG_base_type ]
!112 = metadata !{metadata !113, metadata !115}
!113 = metadata !{i32 786480, null, metadata !"_AP_N", metadata !114, i64 2, null, i32 0, i32 0} ; [ DW_TAG_template_value_parameter ]
!114 = metadata !{i32 786468, null, metadata !"int", null, i32 0, i64 32, i64 32, i64 0, i32 0, i32 5} ; [ DW_TAG_base_type ]
!115 = metadata !{i32 786480, null, metadata !"_AP_S", metadata !116, i64 0, null, i32 0, i32 0} ; [ DW_TAG_template_value_parameter ]
!116 = metadata !{i32 786468, null, metadata !"bool", null, i32 0, i64 8, i64 8, i64 0, i32 0, i32 2} ; [ DW_TAG_base_type ]
!117 = metadata !{i32 786478, i32 0, metadata !97, metadata !"ap_int_base", metadata !"ap_int_base", metadata !"", metadata !98, i32 1494, metadata !118, i1 false, i1 false, i32 0, i32 0, null, i32 256, i1 false, null, null, i32 0, metadata !110, i32 1494} ; [ DW_TAG_subprogram ]
!118 = metadata !{i32 786453, i32 0, metadata !"", i32 0, i32 0, i64 0, i64 0, i64 0, i32 0, null, metadata !119, i32 0, i32 0} ; [ DW_TAG_subroutine_type ]
!119 = metadata !{null, metadata !120}
!120 = metadata !{i32 786447, i32 0, metadata !"", i32 0, i32 0, i64 64, i64 64, i64 0, i32 64, metadata !97} ; [ DW_TAG_pointer_type ]
!121 = metadata !{i32 786478, i32 0, metadata !97, metadata !"ap_int_base<2, false>", metadata !"ap_int_base<2, false>", metadata !"", metadata !98, i32 1506, metadata !122, i1 false, i1 false, i32 0, i32 0, null, i32 256, i1 false, null, metadata !126, i32 0, metadata !110, i32 1506} ; [ DW_TAG_subprogram ]
!122 = metadata !{i32 786453, i32 0, metadata !"", i32 0, i32 0, i64 0, i64 0, i64 0, i32 0, null, metadata !123, i32 0, i32 0} ; [ DW_TAG_subroutine_type ]
!123 = metadata !{null, metadata !120, metadata !124}
!124 = metadata !{i32 786448, null, null, null, i32 0, i64 0, i64 0, i64 0, i32 0, metadata !125} ; [ DW_TAG_reference_type ]
!125 = metadata !{i32 786470, null, metadata !"", null, i32 0, i64 0, i64 0, i64 0, i32 0, metadata !97} ; [ DW_TAG_const_type ]
!126 = metadata !{metadata !127, metadata !128}
!127 = metadata !{i32 786480, null, metadata !"_AP_W2", metadata !114, i64 2, null, i32 0, i32 0} ; [ DW_TAG_template_value_parameter ]
!128 = metadata !{i32 786480, null, metadata !"_AP_S2", metadata !116, i64 0, null, i32 0, i32 0} ; [ DW_TAG_template_value_parameter ]
!129 = metadata !{i32 786478, i32 0, metadata !97, metadata !"ap_int_base<2, false>", metadata !"ap_int_base<2, false>", metadata !"", metadata !98, i32 1509, metadata !130, i1 false, i1 false, i32 0, i32 0, null, i32 256, i1 false, null, metadata !126, i32 0, metadata !110, i32 1509} ; [ DW_TAG_subprogram ]
!130 = metadata !{i32 786453, i32 0, metadata !"", i32 0, i32 0, i64 0, i64 0, i64 0, i32 0, null, metadata !131, i32 0, i32 0} ; [ DW_TAG_subroutine_type ]
!131 = metadata !{null, metadata !120, metadata !132}
!132 = metadata !{i32 786448, null, null, null, i32 0, i64 0, i64 0, i64 0, i32 0, metadata !133} ; [ DW_TAG_reference_type ]
!133 = metadata !{i32 786470, null, metadata !"", null, i32 0, i64 0, i64 0, i64 0, i32 0, metadata !134} ; [ DW_TAG_const_type ]
!134 = metadata !{i32 786485, null, metadata !"", null, i32 0, i64 0, i64 0, i64 0, i32 0, metadata !97} ; [ DW_TAG_volatile_type ]
!135 = metadata !{i32 786478, i32 0, metadata !97, metadata !"ap_int_base", metadata !"ap_int_base", metadata !"", metadata !98, i32 1516, metadata !136, i1 false, i1 false, i32 0, i32 0, null, i32 384, i1 false, null, null, i32 0, metadata !110, i32 1516} ; [ DW_TAG_subprogram ]
!136 = metadata !{i32 786453, i32 0, metadata !"", i32 0, i32 0, i64 0, i64 0, i64 0, i32 0, null, metadata !137, i32 0, i32 0} ; [ DW_TAG_subroutine_type ]
!137 = metadata !{null, metadata !120, metadata !116}
!138 = metadata !{i32 786478, i32 0, metadata !97, metadata !"ap_int_base", metadata !"ap_int_base", metadata !"", metadata !98, i32 1517, metadata !139, i1 false, i1 false, i32 0, i32 0, null, i32 384, i1 false, null, null, i32 0, metadata !110, i32 1517} ; [ DW_TAG_subprogram ]
!139 = metadata !{i32 786453, i32 0, metadata !"", i32 0, i32 0, i64 0, i64 0, i64 0, i32 0, null, metadata !140, i32 0, i32 0} ; [ DW_TAG_subroutine_type ]
!140 = metadata !{null, metadata !120, metadata !141}
!141 = metadata !{i32 786468, null, metadata !"signed char", null, i32 0, i64 8, i64 8, i64 0, i32 0, i32 6} ; [ DW_TAG_base_type ]
!142 = metadata !{i32 786478, i32 0, metadata !97, metadata !"ap_int_base", metadata !"ap_int_base", metadata !"", metadata !98, i32 1518, metadata !143, i1 false, i1 false, i32 0, i32 0, null, i32 384, i1 false, null, null, i32 0, metadata !110, i32 1518} ; [ DW_TAG_subprogram ]
!143 = metadata !{i32 786453, i32 0, metadata !"", i32 0, i32 0, i64 0, i64 0, i64 0, i32 0, null, metadata !144, i32 0, i32 0} ; [ DW_TAG_subroutine_type ]
!144 = metadata !{null, metadata !120, metadata !145}
!145 = metadata !{i32 786468, null, metadata !"unsigned char", null, i32 0, i64 8, i64 8, i64 0, i32 0, i32 8} ; [ DW_TAG_base_type ]
!146 = metadata !{i32 786478, i32 0, metadata !97, metadata !"ap_int_base", metadata !"ap_int_base", metadata !"", metadata !98, i32 1519, metadata !147, i1 false, i1 false, i32 0, i32 0, null, i32 384, i1 false, null, null, i32 0, metadata !110, i32 1519} ; [ DW_TAG_subprogram ]
!147 = metadata !{i32 786453, i32 0, metadata !"", i32 0, i32 0, i64 0, i64 0, i64 0, i32 0, null, metadata !148, i32 0, i32 0} ; [ DW_TAG_subroutine_type ]
!148 = metadata !{null, metadata !120, metadata !149}
!149 = metadata !{i32 786468, null, metadata !"short", null, i32 0, i64 16, i64 16, i64 0, i32 0, i32 5} ; [ DW_TAG_base_type ]
!150 = metadata !{i32 786478, i32 0, metadata !97, metadata !"ap_int_base", metadata !"ap_int_base", metadata !"", metadata !98, i32 1520, metadata !151, i1 false, i1 false, i32 0, i32 0, null, i32 384, i1 false, null, null, i32 0, metadata !110, i32 1520} ; [ DW_TAG_subprogram ]
!151 = metadata !{i32 786453, i32 0, metadata !"", i32 0, i32 0, i64 0, i64 0, i64 0, i32 0, null, metadata !152, i32 0, i32 0} ; [ DW_TAG_subroutine_type ]
!152 = metadata !{null, metadata !120, metadata !153}
!153 = metadata !{i32 786468, null, metadata !"unsigned short", null, i32 0, i64 16, i64 16, i64 0, i32 0, i32 7} ; [ DW_TAG_base_type ]
!154 = metadata !{i32 786478, i32 0, metadata !97, metadata !"ap_int_base", metadata !"ap_int_base", metadata !"", metadata !98, i32 1521, metadata !155, i1 false, i1 false, i32 0, i32 0, null, i32 384, i1 false, null, null, i32 0, metadata !110, i32 1521} ; [ DW_TAG_subprogram ]
!155 = metadata !{i32 786453, i32 0, metadata !"", i32 0, i32 0, i64 0, i64 0, i64 0, i32 0, null, metadata !156, i32 0, i32 0} ; [ DW_TAG_subroutine_type ]
!156 = metadata !{null, metadata !120, metadata !114}
!157 = metadata !{i32 786478, i32 0, metadata !97, metadata !"ap_int_base", metadata !"ap_int_base", metadata !"", metadata !98, i32 1522, metadata !158, i1 false, i1 false, i32 0, i32 0, null, i32 384, i1 false, null, null, i32 0, metadata !110, i32 1522} ; [ DW_TAG_subprogram ]
!158 = metadata !{i32 786453, i32 0, metadata !"", i32 0, i32 0, i64 0, i64 0, i64 0, i32 0, null, metadata !159, i32 0, i32 0} ; [ DW_TAG_subroutine_type ]
!159 = metadata !{null, metadata !120, metadata !160}
!160 = metadata !{i32 786468, null, metadata !"unsigned int", null, i32 0, i64 32, i64 32, i64 0, i32 0, i32 7} ; [ DW_TAG_base_type ]
!161 = metadata !{i32 786478, i32 0, metadata !97, metadata !"ap_int_base", metadata !"ap_int_base", metadata !"", metadata !98, i32 1523, metadata !162, i1 false, i1 false, i32 0, i32 0, null, i32 384, i1 false, null, null, i32 0, metadata !110, i32 1523} ; [ DW_TAG_subprogram ]
!162 = metadata !{i32 786453, i32 0, metadata !"", i32 0, i32 0, i64 0, i64 0, i64 0, i32 0, null, metadata !163, i32 0, i32 0} ; [ DW_TAG_subroutine_type ]
!163 = metadata !{null, metadata !120, metadata !164}
!164 = metadata !{i32 786468, null, metadata !"long int", null, i32 0, i64 64, i64 64, i64 0, i32 0, i32 5} ; [ DW_TAG_base_type ]
!165 = metadata !{i32 786478, i32 0, metadata !97, metadata !"ap_int_base", metadata !"ap_int_base", metadata !"", metadata !98, i32 1524, metadata !166, i1 false, i1 false, i32 0, i32 0, null, i32 384, i1 false, null, null, i32 0, metadata !110, i32 1524} ; [ DW_TAG_subprogram ]
!166 = metadata !{i32 786453, i32 0, metadata !"", i32 0, i32 0, i64 0, i64 0, i64 0, i32 0, null, metadata !167, i32 0, i32 0} ; [ DW_TAG_subroutine_type ]
!167 = metadata !{null, metadata !120, metadata !168}
!168 = metadata !{i32 786468, null, metadata !"long unsigned int", null, i32 0, i64 64, i64 64, i64 0, i32 0, i32 7} ; [ DW_TAG_base_type ]
!169 = metadata !{i32 786478, i32 0, metadata !97, metadata !"ap_int_base", metadata !"ap_int_base", metadata !"", metadata !98, i32 1525, metadata !170, i1 false, i1 false, i32 0, i32 0, null, i32 384, i1 false, null, null, i32 0, metadata !110, i32 1525} ; [ DW_TAG_subprogram ]
!170 = metadata !{i32 786453, i32 0, metadata !"", i32 0, i32 0, i64 0, i64 0, i64 0, i32 0, null, metadata !171, i32 0, i32 0} ; [ DW_TAG_subroutine_type ]
!171 = metadata !{null, metadata !120, metadata !172}
!172 = metadata !{i32 786454, null, metadata !"ap_slong", metadata !98, i32 112, i64 0, i64 0, i64 0, i32 0, metadata !173} ; [ DW_TAG_typedef ]
!173 = metadata !{i32 786468, null, metadata !"long long int", null, i32 0, i64 64, i64 64, i64 0, i32 0, i32 5} ; [ DW_TAG_base_type ]
!174 = metadata !{i32 786478, i32 0, metadata !97, metadata !"ap_int_base", metadata !"ap_int_base", metadata !"", metadata !98, i32 1526, metadata !175, i1 false, i1 false, i32 0, i32 0, null, i32 384, i1 false, null, null, i32 0, metadata !110, i32 1526} ; [ DW_TAG_subprogram ]
!175 = metadata !{i32 786453, i32 0, metadata !"", i32 0, i32 0, i64 0, i64 0, i64 0, i32 0, null, metadata !176, i32 0, i32 0} ; [ DW_TAG_subroutine_type ]
!176 = metadata !{null, metadata !120, metadata !177}
!177 = metadata !{i32 786454, null, metadata !"ap_ulong", metadata !98, i32 111, i64 0, i64 0, i64 0, i32 0, metadata !178} ; [ DW_TAG_typedef ]
!178 = metadata !{i32 786468, null, metadata !"long long unsigned int", null, i32 0, i64 64, i64 64, i64 0, i32 0, i32 7} ; [ DW_TAG_base_type ]
!179 = metadata !{i32 786478, i32 0, metadata !97, metadata !"ap_int_base", metadata !"ap_int_base", metadata !"", metadata !98, i32 1527, metadata !180, i1 false, i1 false, i32 0, i32 0, null, i32 384, i1 false, null, null, i32 0, metadata !110, i32 1527} ; [ DW_TAG_subprogram ]
!180 = metadata !{i32 786453, i32 0, metadata !"", i32 0, i32 0, i64 0, i64 0, i64 0, i32 0, null, metadata !181, i32 0, i32 0} ; [ DW_TAG_subroutine_type ]
!181 = metadata !{null, metadata !120, metadata !182}
!182 = metadata !{i32 786454, null, metadata !"half", metadata !98, i32 54, i64 0, i64 0, i64 0, i32 0, metadata !183} ; [ DW_TAG_typedef ]
!183 = metadata !{i32 786468, null, metadata !"half", null, i32 0, i64 16, i64 16, i64 0, i32 0, i32 4} ; [ DW_TAG_base_type ]
!184 = metadata !{i32 786478, i32 0, metadata !97, metadata !"ap_int_base", metadata !"ap_int_base", metadata !"", metadata !98, i32 1528, metadata !185, i1 false, i1 false, i32 0, i32 0, null, i32 384, i1 false, null, null, i32 0, metadata !110, i32 1528} ; [ DW_TAG_subprogram ]
!185 = metadata !{i32 786453, i32 0, metadata !"", i32 0, i32 0, i64 0, i64 0, i64 0, i32 0, null, metadata !186, i32 0, i32 0} ; [ DW_TAG_subroutine_type ]
!186 = metadata !{null, metadata !120, metadata !187}
!187 = metadata !{i32 786468, null, metadata !"float", null, i32 0, i64 32, i64 32, i64 0, i32 0, i32 4} ; [ DW_TAG_base_type ]
!188 = metadata !{i32 786478, i32 0, metadata !97, metadata !"ap_int_base", metadata !"ap_int_base", metadata !"", metadata !98, i32 1529, metadata !189, i1 false, i1 false, i32 0, i32 0, null, i32 384, i1 false, null, null, i32 0, metadata !110, i32 1529} ; [ DW_TAG_subprogram ]
!189 = metadata !{i32 786453, i32 0, metadata !"", i32 0, i32 0, i64 0, i64 0, i64 0, i32 0, null, metadata !190, i32 0, i32 0} ; [ DW_TAG_subroutine_type ]
!190 = metadata !{null, metadata !120, metadata !191}
!191 = metadata !{i32 786468, null, metadata !"double", null, i32 0, i64 64, i64 64, i64 0, i32 0, i32 4} ; [ DW_TAG_base_type ]
!192 = metadata !{i32 786478, i32 0, metadata !97, metadata !"ap_int_base", metadata !"ap_int_base", metadata !"", metadata !98, i32 1556, metadata !193, i1 false, i1 false, i32 0, i32 0, null, i32 256, i1 false, null, null, i32 0, metadata !110, i32 1556} ; [ DW_TAG_subprogram ]
!193 = metadata !{i32 786453, i32 0, metadata !"", i32 0, i32 0, i64 0, i64 0, i64 0, i32 0, null, metadata !194, i32 0, i32 0} ; [ DW_TAG_subroutine_type ]
!194 = metadata !{null, metadata !120, metadata !195}
!195 = metadata !{i32 786447, null, metadata !"", null, i32 0, i64 64, i64 64, i64 0, i32 0, metadata !196} ; [ DW_TAG_pointer_type ]
!196 = metadata !{i32 786470, null, metadata !"", null, i32 0, i64 0, i64 0, i64 0, i32 0, metadata !197} ; [ DW_TAG_const_type ]
!197 = metadata !{i32 786468, null, metadata !"char", null, i32 0, i64 8, i64 8, i64 0, i32 0, i32 6} ; [ DW_TAG_base_type ]
!198 = metadata !{i32 786478, i32 0, metadata !97, metadata !"ap_int_base", metadata !"ap_int_base", metadata !"", metadata !98, i32 1563, metadata !199, i1 false, i1 false, i32 0, i32 0, null, i32 256, i1 false, null, null, i32 0, metadata !110, i32 1563} ; [ DW_TAG_subprogram ]
!199 = metadata !{i32 786453, i32 0, metadata !"", i32 0, i32 0, i64 0, i64 0, i64 0, i32 0, null, metadata !200, i32 0, i32 0} ; [ DW_TAG_subroutine_type ]
!200 = metadata !{null, metadata !120, metadata !195, metadata !141}
!201 = metadata !{i32 786478, i32 0, metadata !97, metadata !"read", metadata !"read", metadata !"_ZNV11ap_int_baseILi2ELb0ELb1EE4readEv", metadata !98, i32 1584, metadata !202, i1 false, i1 false, i32 0, i32 0, null, i32 256, i1 false, null, null, i32 0, metadata !110, i32 1584} ; [ DW_TAG_subprogram ]
!202 = metadata !{i32 786453, i32 0, metadata !"", i32 0, i32 0, i64 0, i64 0, i64 0, i32 0, null, metadata !203, i32 0, i32 0} ; [ DW_TAG_subroutine_type ]
!203 = metadata !{metadata !97, metadata !204}
!204 = metadata !{i32 786447, i32 0, metadata !"", i32 0, i32 0, i64 64, i64 64, i64 0, i32 64, metadata !134} ; [ DW_TAG_pointer_type ]
!205 = metadata !{i32 786478, i32 0, metadata !97, metadata !"write", metadata !"write", metadata !"_ZNV11ap_int_baseILi2ELb0ELb1EE5writeERKS0_", metadata !98, i32 1590, metadata !206, i1 false, i1 false, i32 0, i32 0, null, i32 256, i1 false, null, null, i32 0, metadata !110, i32 1590} ; [ DW_TAG_subprogram ]
!206 = metadata !{i32 786453, i32 0, metadata !"", i32 0, i32 0, i64 0, i64 0, i64 0, i32 0, null, metadata !207, i32 0, i32 0} ; [ DW_TAG_subroutine_type ]
!207 = metadata !{null, metadata !204, metadata !124}
!208 = metadata !{i32 786478, i32 0, metadata !97, metadata !"operator=", metadata !"operator=", metadata !"_ZNV11ap_int_baseILi2ELb0ELb1EEaSERVKS0_", metadata !98, i32 1602, metadata !209, i1 false, i1 false, i32 0, i32 0, null, i32 256, i1 false, null, null, i32 0, metadata !110, i32 1602} ; [ DW_TAG_subprogram ]
!209 = metadata !{i32 786453, i32 0, metadata !"", i32 0, i32 0, i64 0, i64 0, i64 0, i32 0, null, metadata !210, i32 0, i32 0} ; [ DW_TAG_subroutine_type ]
!210 = metadata !{null, metadata !204, metadata !132}
!211 = metadata !{i32 786478, i32 0, metadata !97, metadata !"operator=", metadata !"operator=", metadata !"_ZNV11ap_int_baseILi2ELb0ELb1EEaSERKS0_", metadata !98, i32 1611, metadata !206, i1 false, i1 false, i32 0, i32 0, null, i32 256, i1 false, null, null, i32 0, metadata !110, i32 1611} ; [ DW_TAG_subprogram ]
!212 = metadata !{i32 786478, i32 0, metadata !97, metadata !"operator=", metadata !"operator=", metadata !"_ZN11ap_int_baseILi2ELb0ELb1EEaSERVKS0_", metadata !98, i32 1634, metadata !213, i1 false, i1 false, i32 0, i32 0, null, i32 256, i1 false, null, null, i32 0, metadata !110, i32 1634} ; [ DW_TAG_subprogram ]
!213 = metadata !{i32 786453, i32 0, metadata !"", i32 0, i32 0, i64 0, i64 0, i64 0, i32 0, null, metadata !214, i32 0, i32 0} ; [ DW_TAG_subroutine_type ]
!214 = metadata !{metadata !215, metadata !120, metadata !132}
!215 = metadata !{i32 786448, null, null, null, i32 0, i64 0, i64 0, i64 0, i32 0, metadata !97} ; [ DW_TAG_reference_type ]
!216 = metadata !{i32 786478, i32 0, metadata !97, metadata !"operator=", metadata !"operator=", metadata !"_ZN11ap_int_baseILi2ELb0ELb1EEaSERKS0_", metadata !98, i32 1639, metadata !217, i1 false, i1 false, i32 0, i32 0, null, i32 256, i1 false, null, null, i32 0, metadata !110, i32 1639} ; [ DW_TAG_subprogram ]
!217 = metadata !{i32 786453, i32 0, metadata !"", i32 0, i32 0, i64 0, i64 0, i64 0, i32 0, null, metadata !218, i32 0, i32 0} ; [ DW_TAG_subroutine_type ]
!218 = metadata !{metadata !215, metadata !120, metadata !124}
!219 = metadata !{i32 786478, i32 0, metadata !97, metadata !"operator=", metadata !"operator=", metadata !"_ZN11ap_int_baseILi2ELb0ELb1EEaSEPKc", metadata !98, i32 1643, metadata !220, i1 false, i1 false, i32 0, i32 0, null, i32 256, i1 false, null, null, i32 0, metadata !110, i32 1643} ; [ DW_TAG_subprogram ]
!220 = metadata !{i32 786453, i32 0, metadata !"", i32 0, i32 0, i64 0, i64 0, i64 0, i32 0, null, metadata !221, i32 0, i32 0} ; [ DW_TAG_subroutine_type ]
!221 = metadata !{metadata !215, metadata !120, metadata !195}
!222 = metadata !{i32 786478, i32 0, metadata !97, metadata !"set", metadata !"set", metadata !"_ZN11ap_int_baseILi2ELb0ELb1EE3setEPKca", metadata !98, i32 1651, metadata !223, i1 false, i1 false, i32 0, i32 0, null, i32 256, i1 false, null, null, i32 0, metadata !110, i32 1651} ; [ DW_TAG_subprogram ]
!223 = metadata !{i32 786453, i32 0, metadata !"", i32 0, i32 0, i64 0, i64 0, i64 0, i32 0, null, metadata !224, i32 0, i32 0} ; [ DW_TAG_subroutine_type ]
!224 = metadata !{metadata !215, metadata !120, metadata !195, metadata !141}
!225 = metadata !{i32 786478, i32 0, metadata !97, metadata !"operator=", metadata !"operator=", metadata !"_ZN11ap_int_baseILi2ELb0ELb1EEaSEa", metadata !98, i32 1665, metadata !226, i1 false, i1 false, i32 0, i32 0, null, i32 256, i1 false, null, null, i32 0, metadata !110, i32 1665} ; [ DW_TAG_subprogram ]
!226 = metadata !{i32 786453, i32 0, metadata !"", i32 0, i32 0, i64 0, i64 0, i64 0, i32 0, null, metadata !227, i32 0, i32 0} ; [ DW_TAG_subroutine_type ]
!227 = metadata !{metadata !215, metadata !120, metadata !141}
!228 = metadata !{i32 786478, i32 0, metadata !97, metadata !"operator=", metadata !"operator=", metadata !"_ZN11ap_int_baseILi2ELb0ELb1EEaSEh", metadata !98, i32 1666, metadata !229, i1 false, i1 false, i32 0, i32 0, null, i32 256, i1 false, null, null, i32 0, metadata !110, i32 1666} ; [ DW_TAG_subprogram ]
!229 = metadata !{i32 786453, i32 0, metadata !"", i32 0, i32 0, i64 0, i64 0, i64 0, i32 0, null, metadata !230, i32 0, i32 0} ; [ DW_TAG_subroutine_type ]
!230 = metadata !{metadata !215, metadata !120, metadata !145}
!231 = metadata !{i32 786478, i32 0, metadata !97, metadata !"operator=", metadata !"operator=", metadata !"_ZN11ap_int_baseILi2ELb0ELb1EEaSEs", metadata !98, i32 1667, metadata !232, i1 false, i1 false, i32 0, i32 0, null, i32 256, i1 false, null, null, i32 0, metadata !110, i32 1667} ; [ DW_TAG_subprogram ]
!232 = metadata !{i32 786453, i32 0, metadata !"", i32 0, i32 0, i64 0, i64 0, i64 0, i32 0, null, metadata !233, i32 0, i32 0} ; [ DW_TAG_subroutine_type ]
!233 = metadata !{metadata !215, metadata !120, metadata !149}
!234 = metadata !{i32 786478, i32 0, metadata !97, metadata !"operator=", metadata !"operator=", metadata !"_ZN11ap_int_baseILi2ELb0ELb1EEaSEt", metadata !98, i32 1668, metadata !235, i1 false, i1 false, i32 0, i32 0, null, i32 256, i1 false, null, null, i32 0, metadata !110, i32 1668} ; [ DW_TAG_subprogram ]
!235 = metadata !{i32 786453, i32 0, metadata !"", i32 0, i32 0, i64 0, i64 0, i64 0, i32 0, null, metadata !236, i32 0, i32 0} ; [ DW_TAG_subroutine_type ]
!236 = metadata !{metadata !215, metadata !120, metadata !153}
!237 = metadata !{i32 786478, i32 0, metadata !97, metadata !"operator=", metadata !"operator=", metadata !"_ZN11ap_int_baseILi2ELb0ELb1EEaSEi", metadata !98, i32 1669, metadata !238, i1 false, i1 false, i32 0, i32 0, null, i32 256, i1 false, null, null, i32 0, metadata !110, i32 1669} ; [ DW_TAG_subprogram ]
!238 = metadata !{i32 786453, i32 0, metadata !"", i32 0, i32 0, i64 0, i64 0, i64 0, i32 0, null, metadata !239, i32 0, i32 0} ; [ DW_TAG_subroutine_type ]
!239 = metadata !{metadata !215, metadata !120, metadata !114}
!240 = metadata !{i32 786478, i32 0, metadata !97, metadata !"operator=", metadata !"operator=", metadata !"_ZN11ap_int_baseILi2ELb0ELb1EEaSEj", metadata !98, i32 1670, metadata !241, i1 false, i1 false, i32 0, i32 0, null, i32 256, i1 false, null, null, i32 0, metadata !110, i32 1670} ; [ DW_TAG_subprogram ]
!241 = metadata !{i32 786453, i32 0, metadata !"", i32 0, i32 0, i64 0, i64 0, i64 0, i32 0, null, metadata !242, i32 0, i32 0} ; [ DW_TAG_subroutine_type ]
!242 = metadata !{metadata !215, metadata !120, metadata !160}
!243 = metadata !{i32 786478, i32 0, metadata !97, metadata !"operator=", metadata !"operator=", metadata !"_ZN11ap_int_baseILi2ELb0ELb1EEaSEx", metadata !98, i32 1671, metadata !244, i1 false, i1 false, i32 0, i32 0, null, i32 256, i1 false, null, null, i32 0, metadata !110, i32 1671} ; [ DW_TAG_subprogram ]
!244 = metadata !{i32 786453, i32 0, metadata !"", i32 0, i32 0, i64 0, i64 0, i64 0, i32 0, null, metadata !245, i32 0, i32 0} ; [ DW_TAG_subroutine_type ]
!245 = metadata !{metadata !215, metadata !120, metadata !172}
!246 = metadata !{i32 786478, i32 0, metadata !97, metadata !"operator=", metadata !"operator=", metadata !"_ZN11ap_int_baseILi2ELb0ELb1EEaSEy", metadata !98, i32 1672, metadata !247, i1 false, i1 false, i32 0, i32 0, null, i32 256, i1 false, null, null, i32 0, metadata !110, i32 1672} ; [ DW_TAG_subprogram ]
!247 = metadata !{i32 786453, i32 0, metadata !"", i32 0, i32 0, i64 0, i64 0, i64 0, i32 0, null, metadata !248, i32 0, i32 0} ; [ DW_TAG_subroutine_type ]
!248 = metadata !{metadata !215, metadata !120, metadata !177}
!249 = metadata !{i32 786478, i32 0, metadata !97, metadata !"operator unsigned char", metadata !"operator unsigned char", metadata !"_ZNK11ap_int_baseILi2ELb0ELb1EEcvhEv", metadata !98, i32 1710, metadata !250, i1 false, i1 false, i32 0, i32 0, null, i32 256, i1 false, null, null, i32 0, metadata !110, i32 1710} ; [ DW_TAG_subprogram ]
!250 = metadata !{i32 786453, i32 0, metadata !"", i32 0, i32 0, i64 0, i64 0, i64 0, i32 0, null, metadata !251, i32 0, i32 0} ; [ DW_TAG_subroutine_type ]
!251 = metadata !{metadata !252, metadata !258}
!252 = metadata !{i32 786454, metadata !97, metadata !"RetType", metadata !98, i32 1458, i64 0, i64 0, i64 0, i32 0, metadata !253} ; [ DW_TAG_typedef ]
!253 = metadata !{i32 786454, metadata !254, metadata !"Type", metadata !98, i32 1426, i64 0, i64 0, i64 0, i32 0, metadata !145} ; [ DW_TAG_typedef ]
!254 = metadata !{i32 786434, null, metadata !"retval<1, false>", metadata !98, i32 1425, i64 8, i64 8, i32 0, i32 0, null, metadata !255, i32 0, null, metadata !256} ; [ DW_TAG_class_type ]
!255 = metadata !{i32 0}
!256 = metadata !{metadata !257, metadata !115}
!257 = metadata !{i32 786480, null, metadata !"_AP_N", metadata !114, i64 1, null, i32 0, i32 0} ; [ DW_TAG_template_value_parameter ]
!258 = metadata !{i32 786447, i32 0, metadata !"", i32 0, i32 0, i64 64, i64 64, i64 0, i32 64, metadata !125} ; [ DW_TAG_pointer_type ]
!259 = metadata !{i32 786478, i32 0, metadata !97, metadata !"to_bool", metadata !"to_bool", metadata !"_ZNK11ap_int_baseILi2ELb0ELb1EE7to_boolEv", metadata !98, i32 1716, metadata !260, i1 false, i1 false, i32 0, i32 0, null, i32 256, i1 false, null, null, i32 0, metadata !110, i32 1716} ; [ DW_TAG_subprogram ]
!260 = metadata !{i32 786453, i32 0, metadata !"", i32 0, i32 0, i64 0, i64 0, i64 0, i32 0, null, metadata !261, i32 0, i32 0} ; [ DW_TAG_subroutine_type ]
!261 = metadata !{metadata !116, metadata !258}
!262 = metadata !{i32 786478, i32 0, metadata !97, metadata !"to_uchar", metadata !"to_uchar", metadata !"_ZNK11ap_int_baseILi2ELb0ELb1EE8to_ucharEv", metadata !98, i32 1717, metadata !263, i1 false, i1 false, i32 0, i32 0, null, i32 256, i1 false, null, null, i32 0, metadata !110, i32 1717} ; [ DW_TAG_subprogram ]
!263 = metadata !{i32 786453, i32 0, metadata !"", i32 0, i32 0, i64 0, i64 0, i64 0, i32 0, null, metadata !264, i32 0, i32 0} ; [ DW_TAG_subroutine_type ]
!264 = metadata !{metadata !145, metadata !258}
!265 = metadata !{i32 786478, i32 0, metadata !97, metadata !"to_char", metadata !"to_char", metadata !"_ZNK11ap_int_baseILi2ELb0ELb1EE7to_charEv", metadata !98, i32 1718, metadata !266, i1 false, i1 false, i32 0, i32 0, null, i32 256, i1 false, null, null, i32 0, metadata !110, i32 1718} ; [ DW_TAG_subprogram ]
!266 = metadata !{i32 786453, i32 0, metadata !"", i32 0, i32 0, i64 0, i64 0, i64 0, i32 0, null, metadata !267, i32 0, i32 0} ; [ DW_TAG_subroutine_type ]
!267 = metadata !{metadata !141, metadata !258}
!268 = metadata !{i32 786478, i32 0, metadata !97, metadata !"to_ushort", metadata !"to_ushort", metadata !"_ZNK11ap_int_baseILi2ELb0ELb1EE9to_ushortEv", metadata !98, i32 1719, metadata !269, i1 false, i1 false, i32 0, i32 0, null, i32 256, i1 false, null, null, i32 0, metadata !110, i32 1719} ; [ DW_TAG_subprogram ]
!269 = metadata !{i32 786453, i32 0, metadata !"", i32 0, i32 0, i64 0, i64 0, i64 0, i32 0, null, metadata !270, i32 0, i32 0} ; [ DW_TAG_subroutine_type ]
!270 = metadata !{metadata !153, metadata !258}
!271 = metadata !{i32 786478, i32 0, metadata !97, metadata !"to_short", metadata !"to_short", metadata !"_ZNK11ap_int_baseILi2ELb0ELb1EE8to_shortEv", metadata !98, i32 1720, metadata !272, i1 false, i1 false, i32 0, i32 0, null, i32 256, i1 false, null, null, i32 0, metadata !110, i32 1720} ; [ DW_TAG_subprogram ]
!272 = metadata !{i32 786453, i32 0, metadata !"", i32 0, i32 0, i64 0, i64 0, i64 0, i32 0, null, metadata !273, i32 0, i32 0} ; [ DW_TAG_subroutine_type ]
!273 = metadata !{metadata !149, metadata !258}
!274 = metadata !{i32 786478, i32 0, metadata !97, metadata !"to_int", metadata !"to_int", metadata !"_ZNK11ap_int_baseILi2ELb0ELb1EE6to_intEv", metadata !98, i32 1721, metadata !275, i1 false, i1 false, i32 0, i32 0, null, i32 256, i1 false, null, null, i32 0, metadata !110, i32 1721} ; [ DW_TAG_subprogram ]
!275 = metadata !{i32 786453, i32 0, metadata !"", i32 0, i32 0, i64 0, i64 0, i64 0, i32 0, null, metadata !276, i32 0, i32 0} ; [ DW_TAG_subroutine_type ]
!276 = metadata !{metadata !114, metadata !258}
!277 = metadata !{i32 786478, i32 0, metadata !97, metadata !"to_uint", metadata !"to_uint", metadata !"_ZNK11ap_int_baseILi2ELb0ELb1EE7to_uintEv", metadata !98, i32 1722, metadata !278, i1 false, i1 false, i32 0, i32 0, null, i32 256, i1 false, null, null, i32 0, metadata !110, i32 1722} ; [ DW_TAG_subprogram ]
!278 = metadata !{i32 786453, i32 0, metadata !"", i32 0, i32 0, i64 0, i64 0, i64 0, i32 0, null, metadata !279, i32 0, i32 0} ; [ DW_TAG_subroutine_type ]
!279 = metadata !{metadata !160, metadata !258}
!280 = metadata !{i32 786478, i32 0, metadata !97, metadata !"to_long", metadata !"to_long", metadata !"_ZNK11ap_int_baseILi2ELb0ELb1EE7to_longEv", metadata !98, i32 1723, metadata !281, i1 false, i1 false, i32 0, i32 0, null, i32 256, i1 false, null, null, i32 0, metadata !110, i32 1723} ; [ DW_TAG_subprogram ]
!281 = metadata !{i32 786453, i32 0, metadata !"", i32 0, i32 0, i64 0, i64 0, i64 0, i32 0, null, metadata !282, i32 0, i32 0} ; [ DW_TAG_subroutine_type ]
!282 = metadata !{metadata !164, metadata !258}
!283 = metadata !{i32 786478, i32 0, metadata !97, metadata !"to_ulong", metadata !"to_ulong", metadata !"_ZNK11ap_int_baseILi2ELb0ELb1EE8to_ulongEv", metadata !98, i32 1724, metadata !284, i1 false, i1 false, i32 0, i32 0, null, i32 256, i1 false, null, null, i32 0, metadata !110, i32 1724} ; [ DW_TAG_subprogram ]
!284 = metadata !{i32 786453, i32 0, metadata !"", i32 0, i32 0, i64 0, i64 0, i64 0, i32 0, null, metadata !285, i32 0, i32 0} ; [ DW_TAG_subroutine_type ]
!285 = metadata !{metadata !168, metadata !258}
!286 = metadata !{i32 786478, i32 0, metadata !97, metadata !"to_int64", metadata !"to_int64", metadata !"_ZNK11ap_int_baseILi2ELb0ELb1EE8to_int64Ev", metadata !98, i32 1725, metadata !287, i1 false, i1 false, i32 0, i32 0, null, i32 256, i1 false, null, null, i32 0, metadata !110, i32 1725} ; [ DW_TAG_subprogram ]
!287 = metadata !{i32 786453, i32 0, metadata !"", i32 0, i32 0, i64 0, i64 0, i64 0, i32 0, null, metadata !288, i32 0, i32 0} ; [ DW_TAG_subroutine_type ]
!288 = metadata !{metadata !172, metadata !258}
!289 = metadata !{i32 786478, i32 0, metadata !97, metadata !"to_uint64", metadata !"to_uint64", metadata !"_ZNK11ap_int_baseILi2ELb0ELb1EE9to_uint64Ev", metadata !98, i32 1726, metadata !290, i1 false, i1 false, i32 0, i32 0, null, i32 256, i1 false, null, null, i32 0, metadata !110, i32 1726} ; [ DW_TAG_subprogram ]
!290 = metadata !{i32 786453, i32 0, metadata !"", i32 0, i32 0, i64 0, i64 0, i64 0, i32 0, null, metadata !291, i32 0, i32 0} ; [ DW_TAG_subroutine_type ]
!291 = metadata !{metadata !177, metadata !258}
!292 = metadata !{i32 786478, i32 0, metadata !97, metadata !"to_double", metadata !"to_double", metadata !"_ZNK11ap_int_baseILi2ELb0ELb1EE9to_doubleEv", metadata !98, i32 1727, metadata !293, i1 false, i1 false, i32 0, i32 0, null, i32 256, i1 false, null, null, i32 0, metadata !110, i32 1727} ; [ DW_TAG_subprogram ]
!293 = metadata !{i32 786453, i32 0, metadata !"", i32 0, i32 0, i64 0, i64 0, i64 0, i32 0, null, metadata !294, i32 0, i32 0} ; [ DW_TAG_subroutine_type ]
!294 = metadata !{metadata !191, metadata !258}
!295 = metadata !{i32 786478, i32 0, metadata !97, metadata !"length", metadata !"length", metadata !"_ZNK11ap_int_baseILi2ELb0ELb1EE6lengthEv", metadata !98, i32 1741, metadata !275, i1 false, i1 false, i32 0, i32 0, null, i32 256, i1 false, null, null, i32 0, metadata !110, i32 1741} ; [ DW_TAG_subprogram ]
!296 = metadata !{i32 786478, i32 0, metadata !97, metadata !"length", metadata !"length", metadata !"_ZNVK11ap_int_baseILi2ELb0ELb1EE6lengthEv", metadata !98, i32 1742, metadata !297, i1 false, i1 false, i32 0, i32 0, null, i32 256, i1 false, null, null, i32 0, metadata !110, i32 1742} ; [ DW_TAG_subprogram ]
!297 = metadata !{i32 786453, i32 0, metadata !"", i32 0, i32 0, i64 0, i64 0, i64 0, i32 0, null, metadata !298, i32 0, i32 0} ; [ DW_TAG_subroutine_type ]
!298 = metadata !{metadata !114, metadata !299}
!299 = metadata !{i32 786447, i32 0, metadata !"", i32 0, i32 0, i64 64, i64 64, i64 0, i32 64, metadata !133} ; [ DW_TAG_pointer_type ]
!300 = metadata !{i32 786478, i32 0, metadata !97, metadata !"reverse", metadata !"reverse", metadata !"_ZN11ap_int_baseILi2ELb0ELb1EE7reverseEv", metadata !98, i32 1747, metadata !301, i1 false, i1 false, i32 0, i32 0, null, i32 256, i1 false, null, null, i32 0, metadata !110, i32 1747} ; [ DW_TAG_subprogram ]
!301 = metadata !{i32 786453, i32 0, metadata !"", i32 0, i32 0, i64 0, i64 0, i64 0, i32 0, null, metadata !302, i32 0, i32 0} ; [ DW_TAG_subroutine_type ]
!302 = metadata !{metadata !215, metadata !120}
!303 = metadata !{i32 786478, i32 0, metadata !97, metadata !"iszero", metadata !"iszero", metadata !"_ZNK11ap_int_baseILi2ELb0ELb1EE6iszeroEv", metadata !98, i32 1753, metadata !260, i1 false, i1 false, i32 0, i32 0, null, i32 256, i1 false, null, null, i32 0, metadata !110, i32 1753} ; [ DW_TAG_subprogram ]
!304 = metadata !{i32 786478, i32 0, metadata !97, metadata !"is_zero", metadata !"is_zero", metadata !"_ZNK11ap_int_baseILi2ELb0ELb1EE7is_zeroEv", metadata !98, i32 1758, metadata !260, i1 false, i1 false, i32 0, i32 0, null, i32 256, i1 false, null, null, i32 0, metadata !110, i32 1758} ; [ DW_TAG_subprogram ]
!305 = metadata !{i32 786478, i32 0, metadata !97, metadata !"sign", metadata !"sign", metadata !"_ZNK11ap_int_baseILi2ELb0ELb1EE4signEv", metadata !98, i32 1763, metadata !260, i1 false, i1 false, i32 0, i32 0, null, i32 256, i1 false, null, null, i32 0, metadata !110, i32 1763} ; [ DW_TAG_subprogram ]
!306 = metadata !{i32 786478, i32 0, metadata !97, metadata !"clear", metadata !"clear", metadata !"_ZN11ap_int_baseILi2ELb0ELb1EE5clearEi", metadata !98, i32 1771, metadata !155, i1 false, i1 false, i32 0, i32 0, null, i32 256, i1 false, null, null, i32 0, metadata !110, i32 1771} ; [ DW_TAG_subprogram ]
!307 = metadata !{i32 786478, i32 0, metadata !97, metadata !"invert", metadata !"invert", metadata !"_ZN11ap_int_baseILi2ELb0ELb1EE6invertEi", metadata !98, i32 1777, metadata !155, i1 false, i1 false, i32 0, i32 0, null, i32 256, i1 false, null, null, i32 0, metadata !110, i32 1777} ; [ DW_TAG_subprogram ]
!308 = metadata !{i32 786478, i32 0, metadata !97, metadata !"test", metadata !"test", metadata !"_ZNK11ap_int_baseILi2ELb0ELb1EE4testEi", metadata !98, i32 1785, metadata !309, i1 false, i1 false, i32 0, i32 0, null, i32 256, i1 false, null, null, i32 0, metadata !110, i32 1785} ; [ DW_TAG_subprogram ]
!309 = metadata !{i32 786453, i32 0, metadata !"", i32 0, i32 0, i64 0, i64 0, i64 0, i32 0, null, metadata !310, i32 0, i32 0} ; [ DW_TAG_subroutine_type ]
!310 = metadata !{metadata !116, metadata !258, metadata !114}
!311 = metadata !{i32 786478, i32 0, metadata !97, metadata !"set", metadata !"set", metadata !"_ZN11ap_int_baseILi2ELb0ELb1EE3setEi", metadata !98, i32 1791, metadata !155, i1 false, i1 false, i32 0, i32 0, null, i32 256, i1 false, null, null, i32 0, metadata !110, i32 1791} ; [ DW_TAG_subprogram ]
!312 = metadata !{i32 786478, i32 0, metadata !97, metadata !"set", metadata !"set", metadata !"_ZN11ap_int_baseILi2ELb0ELb1EE3setEib", metadata !98, i32 1797, metadata !313, i1 false, i1 false, i32 0, i32 0, null, i32 256, i1 false, null, null, i32 0, metadata !110, i32 1797} ; [ DW_TAG_subprogram ]
!313 = metadata !{i32 786453, i32 0, metadata !"", i32 0, i32 0, i64 0, i64 0, i64 0, i32 0, null, metadata !314, i32 0, i32 0} ; [ DW_TAG_subroutine_type ]
!314 = metadata !{null, metadata !120, metadata !114, metadata !116}
!315 = metadata !{i32 786478, i32 0, metadata !97, metadata !"lrotate", metadata !"lrotate", metadata !"_ZN11ap_int_baseILi2ELb0ELb1EE7lrotateEi", metadata !98, i32 1804, metadata !155, i1 false, i1 false, i32 0, i32 0, null, i32 256, i1 false, null, null, i32 0, metadata !110, i32 1804} ; [ DW_TAG_subprogram ]
!316 = metadata !{i32 786478, i32 0, metadata !97, metadata !"rrotate", metadata !"rrotate", metadata !"_ZN11ap_int_baseILi2ELb0ELb1EE7rrotateEi", metadata !98, i32 1813, metadata !155, i1 false, i1 false, i32 0, i32 0, null, i32 256, i1 false, null, null, i32 0, metadata !110, i32 1813} ; [ DW_TAG_subprogram ]
!317 = metadata !{i32 786478, i32 0, metadata !97, metadata !"set_bit", metadata !"set_bit", metadata !"_ZN11ap_int_baseILi2ELb0ELb1EE7set_bitEib", metadata !98, i32 1821, metadata !313, i1 false, i1 false, i32 0, i32 0, null, i32 256, i1 false, null, null, i32 0, metadata !110, i32 1821} ; [ DW_TAG_subprogram ]
!318 = metadata !{i32 786478, i32 0, metadata !97, metadata !"get_bit", metadata !"get_bit", metadata !"_ZNK11ap_int_baseILi2ELb0ELb1EE7get_bitEi", metadata !98, i32 1826, metadata !309, i1 false, i1 false, i32 0, i32 0, null, i32 256, i1 false, null, null, i32 0, metadata !110, i32 1826} ; [ DW_TAG_subprogram ]
!319 = metadata !{i32 786478, i32 0, metadata !97, metadata !"b_not", metadata !"b_not", metadata !"_ZN11ap_int_baseILi2ELb0ELb1EE5b_notEv", metadata !98, i32 1831, metadata !118, i1 false, i1 false, i32 0, i32 0, null, i32 256, i1 false, null, null, i32 0, metadata !110, i32 1831} ; [ DW_TAG_subprogram ]
!320 = metadata !{i32 786478, i32 0, metadata !97, metadata !"countLeadingZeros", metadata !"countLeadingZeros", metadata !"_ZN11ap_int_baseILi2ELb0ELb1EE17countLeadingZerosEv", metadata !98, i32 1838, metadata !321, i1 false, i1 false, i32 0, i32 0, null, i32 256, i1 false, null, null, i32 0, metadata !110, i32 1838} ; [ DW_TAG_subprogram ]
!321 = metadata !{i32 786453, i32 0, metadata !"", i32 0, i32 0, i64 0, i64 0, i64 0, i32 0, null, metadata !322, i32 0, i32 0} ; [ DW_TAG_subroutine_type ]
!322 = metadata !{metadata !114, metadata !120}
!323 = metadata !{i32 786478, i32 0, metadata !97, metadata !"operator++", metadata !"operator++", metadata !"_ZN11ap_int_baseILi2ELb0ELb1EEppEv", metadata !98, i32 1895, metadata !301, i1 false, i1 false, i32 0, i32 0, null, i32 256, i1 false, null, null, i32 0, metadata !110, i32 1895} ; [ DW_TAG_subprogram ]
!324 = metadata !{i32 786478, i32 0, metadata !97, metadata !"operator--", metadata !"operator--", metadata !"_ZN11ap_int_baseILi2ELb0ELb1EEmmEv", metadata !98, i32 1899, metadata !301, i1 false, i1 false, i32 0, i32 0, null, i32 256, i1 false, null, null, i32 0, metadata !110, i32 1899} ; [ DW_TAG_subprogram ]
!325 = metadata !{i32 786478, i32 0, metadata !97, metadata !"operator++", metadata !"operator++", metadata !"_ZN11ap_int_baseILi2ELb0ELb1EEppEi", metadata !98, i32 1907, metadata !326, i1 false, i1 false, i32 0, i32 0, null, i32 256, i1 false, null, null, i32 0, metadata !110, i32 1907} ; [ DW_TAG_subprogram ]
!326 = metadata !{i32 786453, i32 0, metadata !"", i32 0, i32 0, i64 0, i64 0, i64 0, i32 0, null, metadata !327, i32 0, i32 0} ; [ DW_TAG_subroutine_type ]
!327 = metadata !{metadata !125, metadata !120, metadata !114}
!328 = metadata !{i32 786478, i32 0, metadata !97, metadata !"operator--", metadata !"operator--", metadata !"_ZN11ap_int_baseILi2ELb0ELb1EEmmEi", metadata !98, i32 1912, metadata !326, i1 false, i1 false, i32 0, i32 0, null, i32 256, i1 false, null, null, i32 0, metadata !110, i32 1912} ; [ DW_TAG_subprogram ]
!329 = metadata !{i32 786478, i32 0, metadata !97, metadata !"operator+", metadata !"operator+", metadata !"_ZNK11ap_int_baseILi2ELb0ELb1EEpsEv", metadata !98, i32 1921, metadata !330, i1 false, i1 false, i32 0, i32 0, null, i32 256, i1 false, null, null, i32 0, metadata !110, i32 1921} ; [ DW_TAG_subprogram ]
!330 = metadata !{i32 786453, i32 0, metadata !"", i32 0, i32 0, i64 0, i64 0, i64 0, i32 0, null, metadata !331, i32 0, i32 0} ; [ DW_TAG_subroutine_type ]
!331 = metadata !{metadata !97, metadata !258}
!332 = metadata !{i32 786478, i32 0, metadata !97, metadata !"operator!", metadata !"operator!", metadata !"_ZNK11ap_int_baseILi2ELb0ELb1EEntEv", metadata !98, i32 1927, metadata !260, i1 false, i1 false, i32 0, i32 0, null, i32 256, i1 false, null, null, i32 0, metadata !110, i32 1927} ; [ DW_TAG_subprogram ]
!333 = metadata !{i32 786478, i32 0, metadata !97, metadata !"operator-", metadata !"operator-", metadata !"_ZNK11ap_int_baseILi2ELb0ELb1EEngEv", metadata !98, i32 1932, metadata !334, i1 false, i1 false, i32 0, i32 0, null, i32 256, i1 false, null, null, i32 0, metadata !110, i32 1932} ; [ DW_TAG_subprogram ]
!334 = metadata !{i32 786453, i32 0, metadata !"", i32 0, i32 0, i64 0, i64 0, i64 0, i32 0, null, metadata !335, i32 0, i32 0} ; [ DW_TAG_subroutine_type ]
!335 = metadata !{metadata !336, metadata !258}
!336 = metadata !{i32 786434, null, metadata !"ap_int_base<3, true, true>", metadata !98, i32 651, i32 0, i32 0, i32 0, i32 4, null, null, i32 0} ; [ DW_TAG_class_type ]
!337 = metadata !{i32 786478, i32 0, metadata !97, metadata !"range", metadata !"range", metadata !"_ZN11ap_int_baseILi2ELb0ELb1EE5rangeEii", metadata !98, i32 2062, metadata !338, i1 false, i1 false, i32 0, i32 0, null, i32 256, i1 false, null, null, i32 0, metadata !110, i32 2062} ; [ DW_TAG_subprogram ]
!338 = metadata !{i32 786453, i32 0, metadata !"", i32 0, i32 0, i64 0, i64 0, i64 0, i32 0, null, metadata !339, i32 0, i32 0} ; [ DW_TAG_subroutine_type ]
!339 = metadata !{metadata !340, metadata !120, metadata !114, metadata !114}
!340 = metadata !{i32 786434, null, metadata !"ap_range_ref<2, false>", metadata !98, i32 925, i32 0, i32 0, i32 0, i32 4, null, null, i32 0} ; [ DW_TAG_class_type ]
!341 = metadata !{i32 786478, i32 0, metadata !97, metadata !"operator()", metadata !"operator()", metadata !"_ZN11ap_int_baseILi2ELb0ELb1EEclEii", metadata !98, i32 2068, metadata !338, i1 false, i1 false, i32 0, i32 0, null, i32 256, i1 false, null, null, i32 0, metadata !110, i32 2068} ; [ DW_TAG_subprogram ]
!342 = metadata !{i32 786478, i32 0, metadata !97, metadata !"range", metadata !"range", metadata !"_ZNK11ap_int_baseILi2ELb0ELb1EE5rangeEii", metadata !98, i32 2074, metadata !343, i1 false, i1 false, i32 0, i32 0, null, i32 256, i1 false, null, null, i32 0, metadata !110, i32 2074} ; [ DW_TAG_subprogram ]
!343 = metadata !{i32 786453, i32 0, metadata !"", i32 0, i32 0, i64 0, i64 0, i64 0, i32 0, null, metadata !344, i32 0, i32 0} ; [ DW_TAG_subroutine_type ]
!344 = metadata !{metadata !340, metadata !258, metadata !114, metadata !114}
!345 = metadata !{i32 786478, i32 0, metadata !97, metadata !"operator()", metadata !"operator()", metadata !"_ZNK11ap_int_baseILi2ELb0ELb1EEclEii", metadata !98, i32 2080, metadata !343, i1 false, i1 false, i32 0, i32 0, null, i32 256, i1 false, null, null, i32 0, metadata !110, i32 2080} ; [ DW_TAG_subprogram ]
!346 = metadata !{i32 786478, i32 0, metadata !97, metadata !"operator[]", metadata !"operator[]", metadata !"_ZN11ap_int_baseILi2ELb0ELb1EEixEi", metadata !98, i32 2099, metadata !347, i1 false, i1 false, i32 0, i32 0, null, i32 256, i1 false, null, null, i32 0, metadata !110, i32 2099} ; [ DW_TAG_subprogram ]
!347 = metadata !{i32 786453, i32 0, metadata !"", i32 0, i32 0, i64 0, i64 0, i64 0, i32 0, null, metadata !348, i32 0, i32 0} ; [ DW_TAG_subroutine_type ]
!348 = metadata !{metadata !349, metadata !120, metadata !114}
!349 = metadata !{i32 786434, null, metadata !"ap_bit_ref<2, false>", metadata !98, i32 1249, i64 128, i64 64, i32 0, i32 0, null, metadata !350, i32 0, null, metadata !383} ; [ DW_TAG_class_type ]
!350 = metadata !{metadata !351, metadata !352, metadata !353, metadata !359, metadata !363, metadata !367, metadata !368, metadata !372, metadata !375, metadata !376, metadata !379, metadata !380}
!351 = metadata !{i32 786445, metadata !349, metadata !"d_bv", metadata !98, i32 1250, i64 64, i64 64, i64 0, i32 0, metadata !215} ; [ DW_TAG_member ]
!352 = metadata !{i32 786445, metadata !349, metadata !"d_index", metadata !98, i32 1251, i64 32, i64 32, i64 64, i32 0, metadata !114} ; [ DW_TAG_member ]
!353 = metadata !{i32 786478, i32 0, metadata !349, metadata !"ap_bit_ref", metadata !"ap_bit_ref", metadata !"", metadata !98, i32 1254, metadata !354, i1 false, i1 false, i32 0, i32 0, null, i32 256, i1 false, null, null, i32 0, metadata !110, i32 1254} ; [ DW_TAG_subprogram ]
!354 = metadata !{i32 786453, i32 0, metadata !"", i32 0, i32 0, i64 0, i64 0, i64 0, i32 0, null, metadata !355, i32 0, i32 0} ; [ DW_TAG_subroutine_type ]
!355 = metadata !{null, metadata !356, metadata !357}
!356 = metadata !{i32 786447, i32 0, metadata !"", i32 0, i32 0, i64 64, i64 64, i64 0, i32 64, metadata !349} ; [ DW_TAG_pointer_type ]
!357 = metadata !{i32 786448, null, null, null, i32 0, i64 0, i64 0, i64 0, i32 0, metadata !358} ; [ DW_TAG_reference_type ]
!358 = metadata !{i32 786470, null, metadata !"", null, i32 0, i64 0, i64 0, i64 0, i32 0, metadata !349} ; [ DW_TAG_const_type ]
!359 = metadata !{i32 786478, i32 0, metadata !349, metadata !"ap_bit_ref", metadata !"ap_bit_ref", metadata !"", metadata !98, i32 1257, metadata !360, i1 false, i1 false, i32 0, i32 0, null, i32 256, i1 false, null, null, i32 0, metadata !110, i32 1257} ; [ DW_TAG_subprogram ]
!360 = metadata !{i32 786453, i32 0, metadata !"", i32 0, i32 0, i64 0, i64 0, i64 0, i32 0, null, metadata !361, i32 0, i32 0} ; [ DW_TAG_subroutine_type ]
!361 = metadata !{null, metadata !356, metadata !362, metadata !114}
!362 = metadata !{i32 786447, null, metadata !"", null, i32 0, i64 64, i64 64, i64 0, i32 0, metadata !97} ; [ DW_TAG_pointer_type ]
!363 = metadata !{i32 786478, i32 0, metadata !349, metadata !"operator _Bool", metadata !"operator _Bool", metadata !"_ZNK10ap_bit_refILi2ELb0EEcvbEv", metadata !98, i32 1259, metadata !364, i1 false, i1 false, i32 0, i32 0, null, i32 256, i1 false, null, null, i32 0, metadata !110, i32 1259} ; [ DW_TAG_subprogram ]
!364 = metadata !{i32 786453, i32 0, metadata !"", i32 0, i32 0, i64 0, i64 0, i64 0, i32 0, null, metadata !365, i32 0, i32 0} ; [ DW_TAG_subroutine_type ]
!365 = metadata !{metadata !116, metadata !366}
!366 = metadata !{i32 786447, i32 0, metadata !"", i32 0, i32 0, i64 64, i64 64, i64 0, i32 64, metadata !358} ; [ DW_TAG_pointer_type ]
!367 = metadata !{i32 786478, i32 0, metadata !349, metadata !"to_bool", metadata !"to_bool", metadata !"_ZNK10ap_bit_refILi2ELb0EE7to_boolEv", metadata !98, i32 1260, metadata !364, i1 false, i1 false, i32 0, i32 0, null, i32 256, i1 false, null, null, i32 0, metadata !110, i32 1260} ; [ DW_TAG_subprogram ]
!368 = metadata !{i32 786478, i32 0, metadata !349, metadata !"operator=", metadata !"operator=", metadata !"_ZN10ap_bit_refILi2ELb0EEaSEy", metadata !98, i32 1262, metadata !369, i1 false, i1 false, i32 0, i32 0, null, i32 256, i1 false, null, null, i32 0, metadata !110, i32 1262} ; [ DW_TAG_subprogram ]
!369 = metadata !{i32 786453, i32 0, metadata !"", i32 0, i32 0, i64 0, i64 0, i64 0, i32 0, null, metadata !370, i32 0, i32 0} ; [ DW_TAG_subroutine_type ]
!370 = metadata !{metadata !371, metadata !356, metadata !178}
!371 = metadata !{i32 786448, null, null, null, i32 0, i64 0, i64 0, i64 0, i32 0, metadata !349} ; [ DW_TAG_reference_type ]
!372 = metadata !{i32 786478, i32 0, metadata !349, metadata !"operator=", metadata !"operator=", metadata !"_ZN10ap_bit_refILi2ELb0EEaSERKS0_", metadata !98, i32 1282, metadata !373, i1 false, i1 false, i32 0, i32 0, null, i32 256, i1 false, null, null, i32 0, metadata !110, i32 1282} ; [ DW_TAG_subprogram ]
!373 = metadata !{i32 786453, i32 0, metadata !"", i32 0, i32 0, i64 0, i64 0, i64 0, i32 0, null, metadata !374, i32 0, i32 0} ; [ DW_TAG_subroutine_type ]
!374 = metadata !{metadata !371, metadata !356, metadata !357}
!375 = metadata !{i32 786478, i32 0, metadata !349, metadata !"get", metadata !"get", metadata !"_ZNK10ap_bit_refILi2ELb0EE3getEv", metadata !98, i32 1390, metadata !364, i1 false, i1 false, i32 0, i32 0, null, i32 256, i1 false, null, null, i32 0, metadata !110, i32 1390} ; [ DW_TAG_subprogram ]
!376 = metadata !{i32 786478, i32 0, metadata !349, metadata !"get", metadata !"get", metadata !"_ZN10ap_bit_refILi2ELb0EE3getEv", metadata !98, i32 1394, metadata !377, i1 false, i1 false, i32 0, i32 0, null, i32 256, i1 false, null, null, i32 0, metadata !110, i32 1394} ; [ DW_TAG_subprogram ]
!377 = metadata !{i32 786453, i32 0, metadata !"", i32 0, i32 0, i64 0, i64 0, i64 0, i32 0, null, metadata !378, i32 0, i32 0} ; [ DW_TAG_subroutine_type ]
!378 = metadata !{metadata !116, metadata !356}
!379 = metadata !{i32 786478, i32 0, metadata !349, metadata !"operator~", metadata !"operator~", metadata !"_ZNK10ap_bit_refILi2ELb0EEcoEv", metadata !98, i32 1403, metadata !364, i1 false, i1 false, i32 0, i32 0, null, i32 256, i1 false, null, null, i32 0, metadata !110, i32 1403} ; [ DW_TAG_subprogram ]
!380 = metadata !{i32 786478, i32 0, metadata !349, metadata !"length", metadata !"length", metadata !"_ZNK10ap_bit_refILi2ELb0EE6lengthEv", metadata !98, i32 1408, metadata !381, i1 false, i1 false, i32 0, i32 0, null, i32 256, i1 false, null, null, i32 0, metadata !110, i32 1408} ; [ DW_TAG_subprogram ]
!381 = metadata !{i32 786453, i32 0, metadata !"", i32 0, i32 0, i64 0, i64 0, i64 0, i32 0, null, metadata !382, i32 0, i32 0} ; [ DW_TAG_subroutine_type ]
!382 = metadata !{metadata !114, metadata !366}
!383 = metadata !{metadata !384, metadata !115}
!384 = metadata !{i32 786480, null, metadata !"_AP_W", metadata !114, i64 2, null, i32 0, i32 0} ; [ DW_TAG_template_value_parameter ]
!385 = metadata !{i32 786478, i32 0, metadata !97, metadata !"operator[]", metadata !"operator[]", metadata !"_ZNK11ap_int_baseILi2ELb0ELb1EEixEi", metadata !98, i32 2113, metadata !309, i1 false, i1 false, i32 0, i32 0, null, i32 256, i1 false, null, null, i32 0, metadata !110, i32 2113} ; [ DW_TAG_subprogram ]
!386 = metadata !{i32 786478, i32 0, metadata !97, metadata !"bit", metadata !"bit", metadata !"_ZN11ap_int_baseILi2ELb0ELb1EE3bitEi", metadata !98, i32 2127, metadata !347, i1 false, i1 false, i32 0, i32 0, null, i32 256, i1 false, null, null, i32 0, metadata !110, i32 2127} ; [ DW_TAG_subprogram ]
!387 = metadata !{i32 786478, i32 0, metadata !97, metadata !"bit", metadata !"bit", metadata !"_ZNK11ap_int_baseILi2ELb0ELb1EE3bitEi", metadata !98, i32 2141, metadata !309, i1 false, i1 false, i32 0, i32 0, null, i32 256, i1 false, null, null, i32 0, metadata !110, i32 2141} ; [ DW_TAG_subprogram ]
!388 = metadata !{i32 786478, i32 0, metadata !97, metadata !"and_reduce", metadata !"and_reduce", metadata !"_ZN11ap_int_baseILi2ELb0ELb1EE10and_reduceEv", metadata !98, i32 2321, metadata !389, i1 false, i1 false, i32 0, i32 0, null, i32 256, i1 false, null, null, i32 0, metadata !110, i32 2321} ; [ DW_TAG_subprogram ]
!389 = metadata !{i32 786453, i32 0, metadata !"", i32 0, i32 0, i64 0, i64 0, i64 0, i32 0, null, metadata !390, i32 0, i32 0} ; [ DW_TAG_subroutine_type ]
!390 = metadata !{metadata !116, metadata !120}
!391 = metadata !{i32 786478, i32 0, metadata !97, metadata !"nand_reduce", metadata !"nand_reduce", metadata !"_ZN11ap_int_baseILi2ELb0ELb1EE11nand_reduceEv", metadata !98, i32 2324, metadata !389, i1 false, i1 false, i32 0, i32 0, null, i32 256, i1 false, null, null, i32 0, metadata !110, i32 2324} ; [ DW_TAG_subprogram ]
!392 = metadata !{i32 786478, i32 0, metadata !97, metadata !"or_reduce", metadata !"or_reduce", metadata !"_ZN11ap_int_baseILi2ELb0ELb1EE9or_reduceEv", metadata !98, i32 2327, metadata !389, i1 false, i1 false, i32 0, i32 0, null, i32 256, i1 false, null, null, i32 0, metadata !110, i32 2327} ; [ DW_TAG_subprogram ]
!393 = metadata !{i32 786478, i32 0, metadata !97, metadata !"nor_reduce", metadata !"nor_reduce", metadata !"_ZN11ap_int_baseILi2ELb0ELb1EE10nor_reduceEv", metadata !98, i32 2330, metadata !389, i1 false, i1 false, i32 0, i32 0, null, i32 256, i1 false, null, null, i32 0, metadata !110, i32 2330} ; [ DW_TAG_subprogram ]
!394 = metadata !{i32 786478, i32 0, metadata !97, metadata !"xor_reduce", metadata !"xor_reduce", metadata !"_ZN11ap_int_baseILi2ELb0ELb1EE10xor_reduceEv", metadata !98, i32 2333, metadata !389, i1 false, i1 false, i32 0, i32 0, null, i32 256, i1 false, null, null, i32 0, metadata !110, i32 2333} ; [ DW_TAG_subprogram ]
!395 = metadata !{i32 786478, i32 0, metadata !97, metadata !"xnor_reduce", metadata !"xnor_reduce", metadata !"_ZN11ap_int_baseILi2ELb0ELb1EE11xnor_reduceEv", metadata !98, i32 2336, metadata !389, i1 false, i1 false, i32 0, i32 0, null, i32 256, i1 false, null, null, i32 0, metadata !110, i32 2336} ; [ DW_TAG_subprogram ]
!396 = metadata !{i32 786478, i32 0, metadata !97, metadata !"and_reduce", metadata !"and_reduce", metadata !"_ZNK11ap_int_baseILi2ELb0ELb1EE10and_reduceEv", metadata !98, i32 2340, metadata !260, i1 false, i1 false, i32 0, i32 0, null, i32 256, i1 false, null, null, i32 0, metadata !110, i32 2340} ; [ DW_TAG_subprogram ]
!397 = metadata !{i32 786478, i32 0, metadata !97, metadata !"nand_reduce", metadata !"nand_reduce", metadata !"_ZNK11ap_int_baseILi2ELb0ELb1EE11nand_reduceEv", metadata !98, i32 2343, metadata !260, i1 false, i1 false, i32 0, i32 0, null, i32 256, i1 false, null, null, i32 0, metadata !110, i32 2343} ; [ DW_TAG_subprogram ]
!398 = metadata !{i32 786478, i32 0, metadata !97, metadata !"or_reduce", metadata !"or_reduce", metadata !"_ZNK11ap_int_baseILi2ELb0ELb1EE9or_reduceEv", metadata !98, i32 2346, metadata !260, i1 false, i1 false, i32 0, i32 0, null, i32 256, i1 false, null, null, i32 0, metadata !110, i32 2346} ; [ DW_TAG_subprogram ]
!399 = metadata !{i32 786478, i32 0, metadata !97, metadata !"nor_reduce", metadata !"nor_reduce", metadata !"_ZNK11ap_int_baseILi2ELb0ELb1EE10nor_reduceEv", metadata !98, i32 2349, metadata !260, i1 false, i1 false, i32 0, i32 0, null, i32 256, i1 false, null, null, i32 0, metadata !110, i32 2349} ; [ DW_TAG_subprogram ]
!400 = metadata !{i32 786478, i32 0, metadata !97, metadata !"xor_reduce", metadata !"xor_reduce", metadata !"_ZNK11ap_int_baseILi2ELb0ELb1EE10xor_reduceEv", metadata !98, i32 2352, metadata !260, i1 false, i1 false, i32 0, i32 0, null, i32 256, i1 false, null, null, i32 0, metadata !110, i32 2352} ; [ DW_TAG_subprogram ]
!401 = metadata !{i32 786478, i32 0, metadata !97, metadata !"xnor_reduce", metadata !"xnor_reduce", metadata !"_ZNK11ap_int_baseILi2ELb0ELb1EE11xnor_reduceEv", metadata !98, i32 2355, metadata !260, i1 false, i1 false, i32 0, i32 0, null, i32 256, i1 false, null, null, i32 0, metadata !110, i32 2355} ; [ DW_TAG_subprogram ]
!402 = metadata !{i32 786478, i32 0, metadata !97, metadata !"to_string", metadata !"to_string", metadata !"_ZNK11ap_int_baseILi2ELb0ELb1EE9to_stringEPci8BaseModeb", metadata !98, i32 2362, metadata !403, i1 false, i1 false, i32 0, i32 0, null, i32 256, i1 false, null, null, i32 0, metadata !110, i32 2362} ; [ DW_TAG_subprogram ]
!403 = metadata !{i32 786453, i32 0, metadata !"", i32 0, i32 0, i64 0, i64 0, i64 0, i32 0, null, metadata !404, i32 0, i32 0} ; [ DW_TAG_subroutine_type ]
!404 = metadata !{null, metadata !258, metadata !405, metadata !114, metadata !406, metadata !116}
!405 = metadata !{i32 786447, null, metadata !"", null, i32 0, i64 64, i64 64, i64 0, i32 0, metadata !197} ; [ DW_TAG_pointer_type ]
!406 = metadata !{i32 786436, null, metadata !"BaseMode", metadata !98, i32 603, i64 5, i64 8, i32 0, i32 0, null, metadata !407, i32 0, i32 0} ; [ DW_TAG_enumeration_type ]
!407 = metadata !{metadata !408, metadata !409, metadata !410, metadata !411}
!408 = metadata !{i32 786472, metadata !"SC_BIN", i64 2} ; [ DW_TAG_enumerator ]
!409 = metadata !{i32 786472, metadata !"SC_OCT", i64 8} ; [ DW_TAG_enumerator ]
!410 = metadata !{i32 786472, metadata !"SC_DEC", i64 10} ; [ DW_TAG_enumerator ]
!411 = metadata !{i32 786472, metadata !"SC_HEX", i64 16} ; [ DW_TAG_enumerator ]
!412 = metadata !{i32 786478, i32 0, metadata !97, metadata !"to_string", metadata !"to_string", metadata !"_ZNK11ap_int_baseILi2ELb0ELb1EE9to_stringE8BaseModeb", metadata !98, i32 2389, metadata !413, i1 false, i1 false, i32 0, i32 0, null, i32 256, i1 false, null, null, i32 0, metadata !110, i32 2389} ; [ DW_TAG_subprogram ]
!413 = metadata !{i32 786453, i32 0, metadata !"", i32 0, i32 0, i64 0, i64 0, i64 0, i32 0, null, metadata !414, i32 0, i32 0} ; [ DW_TAG_subroutine_type ]
!414 = metadata !{metadata !405, metadata !258, metadata !406, metadata !116}
!415 = metadata !{i32 786478, i32 0, metadata !97, metadata !"to_string", metadata !"to_string", metadata !"_ZNK11ap_int_baseILi2ELb0ELb1EE9to_stringEab", metadata !98, i32 2393, metadata !416, i1 false, i1 false, i32 0, i32 0, null, i32 256, i1 false, null, null, i32 0, metadata !110, i32 2393} ; [ DW_TAG_subprogram ]
!416 = metadata !{i32 786453, i32 0, metadata !"", i32 0, i32 0, i64 0, i64 0, i64 0, i32 0, null, metadata !417, i32 0, i32 0} ; [ DW_TAG_subroutine_type ]
!417 = metadata !{metadata !405, metadata !258, metadata !141, metadata !116}
!418 = metadata !{metadata !384, metadata !115, metadata !419}
!419 = metadata !{i32 786480, null, metadata !"_AP_C", metadata !116, i64 1, null, i32 0, i32 0} ; [ DW_TAG_template_value_parameter ]
!420 = metadata !{i32 786478, i32 0, metadata !93, metadata !"ap_uint", metadata !"ap_uint", metadata !"", metadata !94, i32 186, metadata !421, i1 false, i1 false, i32 0, i32 0, null, i32 256, i1 false, null, null, i32 0, metadata !110, i32 186} ; [ DW_TAG_subprogram ]
!421 = metadata !{i32 786453, i32 0, metadata !"", i32 0, i32 0, i64 0, i64 0, i64 0, i32 0, null, metadata !422, i32 0, i32 0} ; [ DW_TAG_subroutine_type ]
!422 = metadata !{null, metadata !423}
!423 = metadata !{i32 786447, i32 0, metadata !"", i32 0, i32 0, i64 64, i64 64, i64 0, i32 64, metadata !93} ; [ DW_TAG_pointer_type ]
!424 = metadata !{i32 786478, i32 0, metadata !93, metadata !"ap_uint", metadata !"ap_uint", metadata !"", metadata !94, i32 248, metadata !425, i1 false, i1 false, i32 0, i32 0, null, i32 256, i1 false, null, null, i32 0, metadata !110, i32 248} ; [ DW_TAG_subprogram ]
!425 = metadata !{i32 786453, i32 0, metadata !"", i32 0, i32 0, i64 0, i64 0, i64 0, i32 0, null, metadata !426, i32 0, i32 0} ; [ DW_TAG_subroutine_type ]
!426 = metadata !{null, metadata !423, metadata !116}
!427 = metadata !{i32 786478, i32 0, metadata !93, metadata !"ap_uint", metadata !"ap_uint", metadata !"", metadata !94, i32 249, metadata !428, i1 false, i1 false, i32 0, i32 0, null, i32 256, i1 false, null, null, i32 0, metadata !110, i32 249} ; [ DW_TAG_subprogram ]
!428 = metadata !{i32 786453, i32 0, metadata !"", i32 0, i32 0, i64 0, i64 0, i64 0, i32 0, null, metadata !429, i32 0, i32 0} ; [ DW_TAG_subroutine_type ]
!429 = metadata !{null, metadata !423, metadata !141}
!430 = metadata !{i32 786478, i32 0, metadata !93, metadata !"ap_uint", metadata !"ap_uint", metadata !"", metadata !94, i32 250, metadata !431, i1 false, i1 false, i32 0, i32 0, null, i32 256, i1 false, null, null, i32 0, metadata !110, i32 250} ; [ DW_TAG_subprogram ]
!431 = metadata !{i32 786453, i32 0, metadata !"", i32 0, i32 0, i64 0, i64 0, i64 0, i32 0, null, metadata !432, i32 0, i32 0} ; [ DW_TAG_subroutine_type ]
!432 = metadata !{null, metadata !423, metadata !145}
!433 = metadata !{i32 786478, i32 0, metadata !93, metadata !"ap_uint", metadata !"ap_uint", metadata !"", metadata !94, i32 251, metadata !434, i1 false, i1 false, i32 0, i32 0, null, i32 256, i1 false, null, null, i32 0, metadata !110, i32 251} ; [ DW_TAG_subprogram ]
!434 = metadata !{i32 786453, i32 0, metadata !"", i32 0, i32 0, i64 0, i64 0, i64 0, i32 0, null, metadata !435, i32 0, i32 0} ; [ DW_TAG_subroutine_type ]
!435 = metadata !{null, metadata !423, metadata !149}
!436 = metadata !{i32 786478, i32 0, metadata !93, metadata !"ap_uint", metadata !"ap_uint", metadata !"", metadata !94, i32 252, metadata !437, i1 false, i1 false, i32 0, i32 0, null, i32 256, i1 false, null, null, i32 0, metadata !110, i32 252} ; [ DW_TAG_subprogram ]
!437 = metadata !{i32 786453, i32 0, metadata !"", i32 0, i32 0, i64 0, i64 0, i64 0, i32 0, null, metadata !438, i32 0, i32 0} ; [ DW_TAG_subroutine_type ]
!438 = metadata !{null, metadata !423, metadata !153}
!439 = metadata !{i32 786478, i32 0, metadata !93, metadata !"ap_uint", metadata !"ap_uint", metadata !"", metadata !94, i32 253, metadata !440, i1 false, i1 false, i32 0, i32 0, null, i32 256, i1 false, null, null, i32 0, metadata !110, i32 253} ; [ DW_TAG_subprogram ]
!440 = metadata !{i32 786453, i32 0, metadata !"", i32 0, i32 0, i64 0, i64 0, i64 0, i32 0, null, metadata !441, i32 0, i32 0} ; [ DW_TAG_subroutine_type ]
!441 = metadata !{null, metadata !423, metadata !114}
!442 = metadata !{i32 786478, i32 0, metadata !93, metadata !"ap_uint", metadata !"ap_uint", metadata !"", metadata !94, i32 254, metadata !443, i1 false, i1 false, i32 0, i32 0, null, i32 256, i1 false, null, null, i32 0, metadata !110, i32 254} ; [ DW_TAG_subprogram ]
!443 = metadata !{i32 786453, i32 0, metadata !"", i32 0, i32 0, i64 0, i64 0, i64 0, i32 0, null, metadata !444, i32 0, i32 0} ; [ DW_TAG_subroutine_type ]
!444 = metadata !{null, metadata !423, metadata !160}
!445 = metadata !{i32 786478, i32 0, metadata !93, metadata !"ap_uint", metadata !"ap_uint", metadata !"", metadata !94, i32 255, metadata !446, i1 false, i1 false, i32 0, i32 0, null, i32 256, i1 false, null, null, i32 0, metadata !110, i32 255} ; [ DW_TAG_subprogram ]
!446 = metadata !{i32 786453, i32 0, metadata !"", i32 0, i32 0, i64 0, i64 0, i64 0, i32 0, null, metadata !447, i32 0, i32 0} ; [ DW_TAG_subroutine_type ]
!447 = metadata !{null, metadata !423, metadata !164}
!448 = metadata !{i32 786478, i32 0, metadata !93, metadata !"ap_uint", metadata !"ap_uint", metadata !"", metadata !94, i32 256, metadata !449, i1 false, i1 false, i32 0, i32 0, null, i32 256, i1 false, null, null, i32 0, metadata !110, i32 256} ; [ DW_TAG_subprogram ]
!449 = metadata !{i32 786453, i32 0, metadata !"", i32 0, i32 0, i64 0, i64 0, i64 0, i32 0, null, metadata !450, i32 0, i32 0} ; [ DW_TAG_subroutine_type ]
!450 = metadata !{null, metadata !423, metadata !168}
!451 = metadata !{i32 786478, i32 0, metadata !93, metadata !"ap_uint", metadata !"ap_uint", metadata !"", metadata !94, i32 257, metadata !452, i1 false, i1 false, i32 0, i32 0, null, i32 256, i1 false, null, null, i32 0, metadata !110, i32 257} ; [ DW_TAG_subprogram ]
!452 = metadata !{i32 786453, i32 0, metadata !"", i32 0, i32 0, i64 0, i64 0, i64 0, i32 0, null, metadata !453, i32 0, i32 0} ; [ DW_TAG_subroutine_type ]
!453 = metadata !{null, metadata !423, metadata !178}
!454 = metadata !{i32 786478, i32 0, metadata !93, metadata !"ap_uint", metadata !"ap_uint", metadata !"", metadata !94, i32 258, metadata !455, i1 false, i1 false, i32 0, i32 0, null, i32 256, i1 false, null, null, i32 0, metadata !110, i32 258} ; [ DW_TAG_subprogram ]
!455 = metadata !{i32 786453, i32 0, metadata !"", i32 0, i32 0, i64 0, i64 0, i64 0, i32 0, null, metadata !456, i32 0, i32 0} ; [ DW_TAG_subroutine_type ]
!456 = metadata !{null, metadata !423, metadata !173}
!457 = metadata !{i32 786478, i32 0, metadata !93, metadata !"ap_uint", metadata !"ap_uint", metadata !"", metadata !94, i32 259, metadata !458, i1 false, i1 false, i32 0, i32 0, null, i32 256, i1 false, null, null, i32 0, metadata !110, i32 259} ; [ DW_TAG_subprogram ]
!458 = metadata !{i32 786453, i32 0, metadata !"", i32 0, i32 0, i64 0, i64 0, i64 0, i32 0, null, metadata !459, i32 0, i32 0} ; [ DW_TAG_subroutine_type ]
!459 = metadata !{null, metadata !423, metadata !182}
!460 = metadata !{i32 786478, i32 0, metadata !93, metadata !"ap_uint", metadata !"ap_uint", metadata !"", metadata !94, i32 260, metadata !461, i1 false, i1 false, i32 0, i32 0, null, i32 256, i1 false, null, null, i32 0, metadata !110, i32 260} ; [ DW_TAG_subprogram ]
!461 = metadata !{i32 786453, i32 0, metadata !"", i32 0, i32 0, i64 0, i64 0, i64 0, i32 0, null, metadata !462, i32 0, i32 0} ; [ DW_TAG_subroutine_type ]
!462 = metadata !{null, metadata !423, metadata !187}
!463 = metadata !{i32 786478, i32 0, metadata !93, metadata !"ap_uint", metadata !"ap_uint", metadata !"", metadata !94, i32 261, metadata !464, i1 false, i1 false, i32 0, i32 0, null, i32 256, i1 false, null, null, i32 0, metadata !110, i32 261} ; [ DW_TAG_subprogram ]
!464 = metadata !{i32 786453, i32 0, metadata !"", i32 0, i32 0, i64 0, i64 0, i64 0, i32 0, null, metadata !465, i32 0, i32 0} ; [ DW_TAG_subroutine_type ]
!465 = metadata !{null, metadata !423, metadata !191}
!466 = metadata !{i32 786478, i32 0, metadata !93, metadata !"ap_uint", metadata !"ap_uint", metadata !"", metadata !94, i32 263, metadata !467, i1 false, i1 false, i32 0, i32 0, null, i32 256, i1 false, null, null, i32 0, metadata !110, i32 263} ; [ DW_TAG_subprogram ]
!467 = metadata !{i32 786453, i32 0, metadata !"", i32 0, i32 0, i64 0, i64 0, i64 0, i32 0, null, metadata !468, i32 0, i32 0} ; [ DW_TAG_subroutine_type ]
!468 = metadata !{null, metadata !423, metadata !195}
!469 = metadata !{i32 786478, i32 0, metadata !93, metadata !"ap_uint", metadata !"ap_uint", metadata !"", metadata !94, i32 264, metadata !470, i1 false, i1 false, i32 0, i32 0, null, i32 256, i1 false, null, null, i32 0, metadata !110, i32 264} ; [ DW_TAG_subprogram ]
!470 = metadata !{i32 786453, i32 0, metadata !"", i32 0, i32 0, i64 0, i64 0, i64 0, i32 0, null, metadata !471, i32 0, i32 0} ; [ DW_TAG_subroutine_type ]
!471 = metadata !{null, metadata !423, metadata !195, metadata !141}
!472 = metadata !{i32 786478, i32 0, metadata !93, metadata !"operator=", metadata !"operator=", metadata !"_ZNV7ap_uintILi2EEaSERKS0_", metadata !94, i32 267, metadata !473, i1 false, i1 false, i32 0, i32 0, null, i32 256, i1 false, null, null, i32 0, metadata !110, i32 267} ; [ DW_TAG_subprogram ]
!473 = metadata !{i32 786453, i32 0, metadata !"", i32 0, i32 0, i64 0, i64 0, i64 0, i32 0, null, metadata !474, i32 0, i32 0} ; [ DW_TAG_subroutine_type ]
!474 = metadata !{null, metadata !475, metadata !477}
!475 = metadata !{i32 786447, i32 0, metadata !"", i32 0, i32 0, i64 64, i64 64, i64 0, i32 64, metadata !476} ; [ DW_TAG_pointer_type ]
!476 = metadata !{i32 786485, null, metadata !"", null, i32 0, i64 0, i64 0, i64 0, i32 0, metadata !93} ; [ DW_TAG_volatile_type ]
!477 = metadata !{i32 786448, null, null, null, i32 0, i64 0, i64 0, i64 0, i32 0, metadata !478} ; [ DW_TAG_reference_type ]
!478 = metadata !{i32 786470, null, metadata !"", null, i32 0, i64 0, i64 0, i64 0, i32 0, metadata !93} ; [ DW_TAG_const_type ]
!479 = metadata !{i32 786478, i32 0, metadata !93, metadata !"operator=", metadata !"operator=", metadata !"_ZNV7ap_uintILi2EEaSERVKS0_", metadata !94, i32 271, metadata !480, i1 false, i1 false, i32 0, i32 0, null, i32 256, i1 false, null, null, i32 0, metadata !110, i32 271} ; [ DW_TAG_subprogram ]
!480 = metadata !{i32 786453, i32 0, metadata !"", i32 0, i32 0, i64 0, i64 0, i64 0, i32 0, null, metadata !481, i32 0, i32 0} ; [ DW_TAG_subroutine_type ]
!481 = metadata !{null, metadata !475, metadata !482}
!482 = metadata !{i32 786448, null, null, null, i32 0, i64 0, i64 0, i64 0, i32 0, metadata !483} ; [ DW_TAG_reference_type ]
!483 = metadata !{i32 786470, null, metadata !"", null, i32 0, i64 0, i64 0, i64 0, i32 0, metadata !476} ; [ DW_TAG_const_type ]
!484 = metadata !{i32 786478, i32 0, metadata !93, metadata !"operator=", metadata !"operator=", metadata !"_ZN7ap_uintILi2EEaSERVKS0_", metadata !94, i32 275, metadata !485, i1 false, i1 false, i32 0, i32 0, null, i32 256, i1 false, null, null, i32 0, metadata !110, i32 275} ; [ DW_TAG_subprogram ]
!485 = metadata !{i32 786453, i32 0, metadata !"", i32 0, i32 0, i64 0, i64 0, i64 0, i32 0, null, metadata !486, i32 0, i32 0} ; [ DW_TAG_subroutine_type ]
!486 = metadata !{metadata !487, metadata !423, metadata !482}
!487 = metadata !{i32 786448, null, null, null, i32 0, i64 0, i64 0, i64 0, i32 0, metadata !93} ; [ DW_TAG_reference_type ]
!488 = metadata !{i32 786478, i32 0, metadata !93, metadata !"operator=", metadata !"operator=", metadata !"_ZN7ap_uintILi2EEaSERKS0_", metadata !94, i32 280, metadata !489, i1 false, i1 false, i32 0, i32 0, null, i32 256, i1 false, null, null, i32 0, metadata !110, i32 280} ; [ DW_TAG_subprogram ]
!489 = metadata !{i32 786453, i32 0, metadata !"", i32 0, i32 0, i64 0, i64 0, i64 0, i32 0, null, metadata !490, i32 0, i32 0} ; [ DW_TAG_subroutine_type ]
!490 = metadata !{metadata !487, metadata !423, metadata !477}
!491 = metadata !{metadata !384}
!492 = metadata !{i32 786454, null, metadata !"packet_t", metadata !89, i32 6, i64 0, i64 0, i64 0, i32 0, metadata !493} ; [ DW_TAG_typedef ]
!493 = metadata !{i32 786434, null, metadata !"ap_uint<28>", metadata !94, i32 183, i64 32, i64 32, i32 0, i32 0, null, metadata !494, i32 0, null, metadata !873} ; [ DW_TAG_class_type ]
!494 = metadata !{metadata !495, metadata !802, metadata !806, metadata !809, metadata !812, metadata !815, metadata !818, metadata !821, metadata !824, metadata !827, metadata !830, metadata !833, metadata !836, metadata !839, metadata !842, metadata !845, metadata !848, metadata !851, metadata !854, metadata !861, metadata !866, metadata !870}
!495 = metadata !{i32 786460, metadata !493, null, metadata !94, i32 0, i64 0, i64 0, i64 0, i32 0, metadata !496} ; [ DW_TAG_inheritance ]
!496 = metadata !{i32 786434, null, metadata !"ap_int_base<28, false, true>", metadata !98, i32 1453, i64 32, i64 32, i32 0, i32 0, null, metadata !497, i32 0, null, metadata !801} ; [ DW_TAG_class_type ]
!497 = metadata !{metadata !498, metadata !509, metadata !513, metadata !516, metadata !519, metadata !522, metadata !525, metadata !528, metadata !531, metadata !534, metadata !537, metadata !540, metadata !543, metadata !546, metadata !549, metadata !552, metadata !555, metadata !558, metadata !561, metadata !566, metadata !571, metadata !576, metadata !577, metadata !581, metadata !584, metadata !587, metadata !590, metadata !593, metadata !596, metadata !599, metadata !602, metadata !605, metadata !608, metadata !611, metadata !614, metadata !623, metadata !626, metadata !629, metadata !632, metadata !635, metadata !638, metadata !641, metadata !644, metadata !647, metadata !650, metadata !653, metadata !656, metadata !659, metadata !660, metadata !664, metadata !667, metadata !668, metadata !669, metadata !670, metadata !671, metadata !672, metadata !675, metadata !676, metadata !679, metadata !680, metadata !681, metadata !682, metadata !683, metadata !684, metadata !687, metadata !688, metadata !689, metadata !692, metadata !693, metadata !696, metadata !697, metadata !701, metadata !766, metadata !767, metadata !770, metadata !771, metadata !775, metadata !776, metadata !777, metadata !778, metadata !781, metadata !782, metadata !783, metadata !784, metadata !785, metadata !786, metadata !787, metadata !788, metadata !789, metadata !790, metadata !791, metadata !792, metadata !795, metadata !798}
!498 = metadata !{i32 786460, metadata !496, null, metadata !98, i32 0, i64 0, i64 0, i64 0, i32 0, metadata !499} ; [ DW_TAG_inheritance ]
!499 = metadata !{i32 786434, null, metadata !"ssdm_int<28 + 1024 * 0, false>", metadata !102, i32 30, i64 32, i64 32, i32 0, i32 0, null, metadata !500, i32 0, null, metadata !507} ; [ DW_TAG_class_type ]
!500 = metadata !{metadata !501, metadata !503}
!501 = metadata !{i32 786445, metadata !499, metadata !"V", metadata !102, i32 30, i64 28, i64 32, i64 0, i32 0, metadata !502} ; [ DW_TAG_member ]
!502 = metadata !{i32 786468, null, metadata !"uint28", null, i32 0, i64 28, i64 32, i64 0, i32 0, i32 7} ; [ DW_TAG_base_type ]
!503 = metadata !{i32 786478, i32 0, metadata !499, metadata !"ssdm_int", metadata !"ssdm_int", metadata !"", metadata !102, i32 30, metadata !504, i1 false, i1 false, i32 0, i32 0, null, i32 256, i1 false, null, null, i32 0, metadata !110, i32 30} ; [ DW_TAG_subprogram ]
!504 = metadata !{i32 786453, i32 0, metadata !"", i32 0, i32 0, i64 0, i64 0, i64 0, i32 0, null, metadata !505, i32 0, i32 0} ; [ DW_TAG_subroutine_type ]
!505 = metadata !{null, metadata !506}
!506 = metadata !{i32 786447, i32 0, metadata !"", i32 0, i32 0, i64 64, i64 64, i64 0, i32 64, metadata !499} ; [ DW_TAG_pointer_type ]
!507 = metadata !{metadata !508, metadata !115}
!508 = metadata !{i32 786480, null, metadata !"_AP_N", metadata !114, i64 28, null, i32 0, i32 0} ; [ DW_TAG_template_value_parameter ]
!509 = metadata !{i32 786478, i32 0, metadata !496, metadata !"ap_int_base", metadata !"ap_int_base", metadata !"", metadata !98, i32 1494, metadata !510, i1 false, i1 false, i32 0, i32 0, null, i32 256, i1 false, null, null, i32 0, metadata !110, i32 1494} ; [ DW_TAG_subprogram ]
!510 = metadata !{i32 786453, i32 0, metadata !"", i32 0, i32 0, i64 0, i64 0, i64 0, i32 0, null, metadata !511, i32 0, i32 0} ; [ DW_TAG_subroutine_type ]
!511 = metadata !{null, metadata !512}
!512 = metadata !{i32 786447, i32 0, metadata !"", i32 0, i32 0, i64 64, i64 64, i64 0, i32 64, metadata !496} ; [ DW_TAG_pointer_type ]
!513 = metadata !{i32 786478, i32 0, metadata !496, metadata !"ap_int_base", metadata !"ap_int_base", metadata !"", metadata !98, i32 1516, metadata !514, i1 false, i1 false, i32 0, i32 0, null, i32 384, i1 false, null, null, i32 0, metadata !110, i32 1516} ; [ DW_TAG_subprogram ]
!514 = metadata !{i32 786453, i32 0, metadata !"", i32 0, i32 0, i64 0, i64 0, i64 0, i32 0, null, metadata !515, i32 0, i32 0} ; [ DW_TAG_subroutine_type ]
!515 = metadata !{null, metadata !512, metadata !116}
!516 = metadata !{i32 786478, i32 0, metadata !496, metadata !"ap_int_base", metadata !"ap_int_base", metadata !"", metadata !98, i32 1517, metadata !517, i1 false, i1 false, i32 0, i32 0, null, i32 384, i1 false, null, null, i32 0, metadata !110, i32 1517} ; [ DW_TAG_subprogram ]
!517 = metadata !{i32 786453, i32 0, metadata !"", i32 0, i32 0, i64 0, i64 0, i64 0, i32 0, null, metadata !518, i32 0, i32 0} ; [ DW_TAG_subroutine_type ]
!518 = metadata !{null, metadata !512, metadata !141}
!519 = metadata !{i32 786478, i32 0, metadata !496, metadata !"ap_int_base", metadata !"ap_int_base", metadata !"", metadata !98, i32 1518, metadata !520, i1 false, i1 false, i32 0, i32 0, null, i32 384, i1 false, null, null, i32 0, metadata !110, i32 1518} ; [ DW_TAG_subprogram ]
!520 = metadata !{i32 786453, i32 0, metadata !"", i32 0, i32 0, i64 0, i64 0, i64 0, i32 0, null, metadata !521, i32 0, i32 0} ; [ DW_TAG_subroutine_type ]
!521 = metadata !{null, metadata !512, metadata !145}
!522 = metadata !{i32 786478, i32 0, metadata !496, metadata !"ap_int_base", metadata !"ap_int_base", metadata !"", metadata !98, i32 1519, metadata !523, i1 false, i1 false, i32 0, i32 0, null, i32 384, i1 false, null, null, i32 0, metadata !110, i32 1519} ; [ DW_TAG_subprogram ]
!523 = metadata !{i32 786453, i32 0, metadata !"", i32 0, i32 0, i64 0, i64 0, i64 0, i32 0, null, metadata !524, i32 0, i32 0} ; [ DW_TAG_subroutine_type ]
!524 = metadata !{null, metadata !512, metadata !149}
!525 = metadata !{i32 786478, i32 0, metadata !496, metadata !"ap_int_base", metadata !"ap_int_base", metadata !"", metadata !98, i32 1520, metadata !526, i1 false, i1 false, i32 0, i32 0, null, i32 384, i1 false, null, null, i32 0, metadata !110, i32 1520} ; [ DW_TAG_subprogram ]
!526 = metadata !{i32 786453, i32 0, metadata !"", i32 0, i32 0, i64 0, i64 0, i64 0, i32 0, null, metadata !527, i32 0, i32 0} ; [ DW_TAG_subroutine_type ]
!527 = metadata !{null, metadata !512, metadata !153}
!528 = metadata !{i32 786478, i32 0, metadata !496, metadata !"ap_int_base", metadata !"ap_int_base", metadata !"", metadata !98, i32 1521, metadata !529, i1 false, i1 false, i32 0, i32 0, null, i32 384, i1 false, null, null, i32 0, metadata !110, i32 1521} ; [ DW_TAG_subprogram ]
!529 = metadata !{i32 786453, i32 0, metadata !"", i32 0, i32 0, i64 0, i64 0, i64 0, i32 0, null, metadata !530, i32 0, i32 0} ; [ DW_TAG_subroutine_type ]
!530 = metadata !{null, metadata !512, metadata !114}
!531 = metadata !{i32 786478, i32 0, metadata !496, metadata !"ap_int_base", metadata !"ap_int_base", metadata !"", metadata !98, i32 1522, metadata !532, i1 false, i1 false, i32 0, i32 0, null, i32 384, i1 false, null, null, i32 0, metadata !110, i32 1522} ; [ DW_TAG_subprogram ]
!532 = metadata !{i32 786453, i32 0, metadata !"", i32 0, i32 0, i64 0, i64 0, i64 0, i32 0, null, metadata !533, i32 0, i32 0} ; [ DW_TAG_subroutine_type ]
!533 = metadata !{null, metadata !512, metadata !160}
!534 = metadata !{i32 786478, i32 0, metadata !496, metadata !"ap_int_base", metadata !"ap_int_base", metadata !"", metadata !98, i32 1523, metadata !535, i1 false, i1 false, i32 0, i32 0, null, i32 384, i1 false, null, null, i32 0, metadata !110, i32 1523} ; [ DW_TAG_subprogram ]
!535 = metadata !{i32 786453, i32 0, metadata !"", i32 0, i32 0, i64 0, i64 0, i64 0, i32 0, null, metadata !536, i32 0, i32 0} ; [ DW_TAG_subroutine_type ]
!536 = metadata !{null, metadata !512, metadata !164}
!537 = metadata !{i32 786478, i32 0, metadata !496, metadata !"ap_int_base", metadata !"ap_int_base", metadata !"", metadata !98, i32 1524, metadata !538, i1 false, i1 false, i32 0, i32 0, null, i32 384, i1 false, null, null, i32 0, metadata !110, i32 1524} ; [ DW_TAG_subprogram ]
!538 = metadata !{i32 786453, i32 0, metadata !"", i32 0, i32 0, i64 0, i64 0, i64 0, i32 0, null, metadata !539, i32 0, i32 0} ; [ DW_TAG_subroutine_type ]
!539 = metadata !{null, metadata !512, metadata !168}
!540 = metadata !{i32 786478, i32 0, metadata !496, metadata !"ap_int_base", metadata !"ap_int_base", metadata !"", metadata !98, i32 1525, metadata !541, i1 false, i1 false, i32 0, i32 0, null, i32 384, i1 false, null, null, i32 0, metadata !110, i32 1525} ; [ DW_TAG_subprogram ]
!541 = metadata !{i32 786453, i32 0, metadata !"", i32 0, i32 0, i64 0, i64 0, i64 0, i32 0, null, metadata !542, i32 0, i32 0} ; [ DW_TAG_subroutine_type ]
!542 = metadata !{null, metadata !512, metadata !172}
!543 = metadata !{i32 786478, i32 0, metadata !496, metadata !"ap_int_base", metadata !"ap_int_base", metadata !"", metadata !98, i32 1526, metadata !544, i1 false, i1 false, i32 0, i32 0, null, i32 384, i1 false, null, null, i32 0, metadata !110, i32 1526} ; [ DW_TAG_subprogram ]
!544 = metadata !{i32 786453, i32 0, metadata !"", i32 0, i32 0, i64 0, i64 0, i64 0, i32 0, null, metadata !545, i32 0, i32 0} ; [ DW_TAG_subroutine_type ]
!545 = metadata !{null, metadata !512, metadata !177}
!546 = metadata !{i32 786478, i32 0, metadata !496, metadata !"ap_int_base", metadata !"ap_int_base", metadata !"", metadata !98, i32 1527, metadata !547, i1 false, i1 false, i32 0, i32 0, null, i32 384, i1 false, null, null, i32 0, metadata !110, i32 1527} ; [ DW_TAG_subprogram ]
!547 = metadata !{i32 786453, i32 0, metadata !"", i32 0, i32 0, i64 0, i64 0, i64 0, i32 0, null, metadata !548, i32 0, i32 0} ; [ DW_TAG_subroutine_type ]
!548 = metadata !{null, metadata !512, metadata !182}
!549 = metadata !{i32 786478, i32 0, metadata !496, metadata !"ap_int_base", metadata !"ap_int_base", metadata !"", metadata !98, i32 1528, metadata !550, i1 false, i1 false, i32 0, i32 0, null, i32 384, i1 false, null, null, i32 0, metadata !110, i32 1528} ; [ DW_TAG_subprogram ]
!550 = metadata !{i32 786453, i32 0, metadata !"", i32 0, i32 0, i64 0, i64 0, i64 0, i32 0, null, metadata !551, i32 0, i32 0} ; [ DW_TAG_subroutine_type ]
!551 = metadata !{null, metadata !512, metadata !187}
!552 = metadata !{i32 786478, i32 0, metadata !496, metadata !"ap_int_base", metadata !"ap_int_base", metadata !"", metadata !98, i32 1529, metadata !553, i1 false, i1 false, i32 0, i32 0, null, i32 384, i1 false, null, null, i32 0, metadata !110, i32 1529} ; [ DW_TAG_subprogram ]
!553 = metadata !{i32 786453, i32 0, metadata !"", i32 0, i32 0, i64 0, i64 0, i64 0, i32 0, null, metadata !554, i32 0, i32 0} ; [ DW_TAG_subroutine_type ]
!554 = metadata !{null, metadata !512, metadata !191}
!555 = metadata !{i32 786478, i32 0, metadata !496, metadata !"ap_int_base", metadata !"ap_int_base", metadata !"", metadata !98, i32 1556, metadata !556, i1 false, i1 false, i32 0, i32 0, null, i32 256, i1 false, null, null, i32 0, metadata !110, i32 1556} ; [ DW_TAG_subprogram ]
!556 = metadata !{i32 786453, i32 0, metadata !"", i32 0, i32 0, i64 0, i64 0, i64 0, i32 0, null, metadata !557, i32 0, i32 0} ; [ DW_TAG_subroutine_type ]
!557 = metadata !{null, metadata !512, metadata !195}
!558 = metadata !{i32 786478, i32 0, metadata !496, metadata !"ap_int_base", metadata !"ap_int_base", metadata !"", metadata !98, i32 1563, metadata !559, i1 false, i1 false, i32 0, i32 0, null, i32 256, i1 false, null, null, i32 0, metadata !110, i32 1563} ; [ DW_TAG_subprogram ]
!559 = metadata !{i32 786453, i32 0, metadata !"", i32 0, i32 0, i64 0, i64 0, i64 0, i32 0, null, metadata !560, i32 0, i32 0} ; [ DW_TAG_subroutine_type ]
!560 = metadata !{null, metadata !512, metadata !195, metadata !141}
!561 = metadata !{i32 786478, i32 0, metadata !496, metadata !"read", metadata !"read", metadata !"_ZNV11ap_int_baseILi28ELb0ELb1EE4readEv", metadata !98, i32 1584, metadata !562, i1 false, i1 false, i32 0, i32 0, null, i32 256, i1 false, null, null, i32 0, metadata !110, i32 1584} ; [ DW_TAG_subprogram ]
!562 = metadata !{i32 786453, i32 0, metadata !"", i32 0, i32 0, i64 0, i64 0, i64 0, i32 0, null, metadata !563, i32 0, i32 0} ; [ DW_TAG_subroutine_type ]
!563 = metadata !{metadata !496, metadata !564}
!564 = metadata !{i32 786447, i32 0, metadata !"", i32 0, i32 0, i64 64, i64 64, i64 0, i32 64, metadata !565} ; [ DW_TAG_pointer_type ]
!565 = metadata !{i32 786485, null, metadata !"", null, i32 0, i64 0, i64 0, i64 0, i32 0, metadata !496} ; [ DW_TAG_volatile_type ]
!566 = metadata !{i32 786478, i32 0, metadata !496, metadata !"write", metadata !"write", metadata !"_ZNV11ap_int_baseILi28ELb0ELb1EE5writeERKS0_", metadata !98, i32 1590, metadata !567, i1 false, i1 false, i32 0, i32 0, null, i32 256, i1 false, null, null, i32 0, metadata !110, i32 1590} ; [ DW_TAG_subprogram ]
!567 = metadata !{i32 786453, i32 0, metadata !"", i32 0, i32 0, i64 0, i64 0, i64 0, i32 0, null, metadata !568, i32 0, i32 0} ; [ DW_TAG_subroutine_type ]
!568 = metadata !{null, metadata !564, metadata !569}
!569 = metadata !{i32 786448, null, null, null, i32 0, i64 0, i64 0, i64 0, i32 0, metadata !570} ; [ DW_TAG_reference_type ]
!570 = metadata !{i32 786470, null, metadata !"", null, i32 0, i64 0, i64 0, i64 0, i32 0, metadata !496} ; [ DW_TAG_const_type ]
!571 = metadata !{i32 786478, i32 0, metadata !496, metadata !"operator=", metadata !"operator=", metadata !"_ZNV11ap_int_baseILi28ELb0ELb1EEaSERVKS0_", metadata !98, i32 1602, metadata !572, i1 false, i1 false, i32 0, i32 0, null, i32 256, i1 false, null, null, i32 0, metadata !110, i32 1602} ; [ DW_TAG_subprogram ]
!572 = metadata !{i32 786453, i32 0, metadata !"", i32 0, i32 0, i64 0, i64 0, i64 0, i32 0, null, metadata !573, i32 0, i32 0} ; [ DW_TAG_subroutine_type ]
!573 = metadata !{null, metadata !564, metadata !574}
!574 = metadata !{i32 786448, null, null, null, i32 0, i64 0, i64 0, i64 0, i32 0, metadata !575} ; [ DW_TAG_reference_type ]
!575 = metadata !{i32 786470, null, metadata !"", null, i32 0, i64 0, i64 0, i64 0, i32 0, metadata !565} ; [ DW_TAG_const_type ]
!576 = metadata !{i32 786478, i32 0, metadata !496, metadata !"operator=", metadata !"operator=", metadata !"_ZNV11ap_int_baseILi28ELb0ELb1EEaSERKS0_", metadata !98, i32 1611, metadata !567, i1 false, i1 false, i32 0, i32 0, null, i32 256, i1 false, null, null, i32 0, metadata !110, i32 1611} ; [ DW_TAG_subprogram ]
!577 = metadata !{i32 786478, i32 0, metadata !496, metadata !"operator=", metadata !"operator=", metadata !"_ZN11ap_int_baseILi28ELb0ELb1EEaSERVKS0_", metadata !98, i32 1634, metadata !578, i1 false, i1 false, i32 0, i32 0, null, i32 256, i1 false, null, null, i32 0, metadata !110, i32 1634} ; [ DW_TAG_subprogram ]
!578 = metadata !{i32 786453, i32 0, metadata !"", i32 0, i32 0, i64 0, i64 0, i64 0, i32 0, null, metadata !579, i32 0, i32 0} ; [ DW_TAG_subroutine_type ]
!579 = metadata !{metadata !580, metadata !512, metadata !574}
!580 = metadata !{i32 786448, null, null, null, i32 0, i64 0, i64 0, i64 0, i32 0, metadata !496} ; [ DW_TAG_reference_type ]
!581 = metadata !{i32 786478, i32 0, metadata !496, metadata !"operator=", metadata !"operator=", metadata !"_ZN11ap_int_baseILi28ELb0ELb1EEaSERKS0_", metadata !98, i32 1639, metadata !582, i1 false, i1 false, i32 0, i32 0, null, i32 256, i1 false, null, null, i32 0, metadata !110, i32 1639} ; [ DW_TAG_subprogram ]
!582 = metadata !{i32 786453, i32 0, metadata !"", i32 0, i32 0, i64 0, i64 0, i64 0, i32 0, null, metadata !583, i32 0, i32 0} ; [ DW_TAG_subroutine_type ]
!583 = metadata !{metadata !580, metadata !512, metadata !569}
!584 = metadata !{i32 786478, i32 0, metadata !496, metadata !"operator=", metadata !"operator=", metadata !"_ZN11ap_int_baseILi28ELb0ELb1EEaSEPKc", metadata !98, i32 1643, metadata !585, i1 false, i1 false, i32 0, i32 0, null, i32 256, i1 false, null, null, i32 0, metadata !110, i32 1643} ; [ DW_TAG_subprogram ]
!585 = metadata !{i32 786453, i32 0, metadata !"", i32 0, i32 0, i64 0, i64 0, i64 0, i32 0, null, metadata !586, i32 0, i32 0} ; [ DW_TAG_subroutine_type ]
!586 = metadata !{metadata !580, metadata !512, metadata !195}
!587 = metadata !{i32 786478, i32 0, metadata !496, metadata !"set", metadata !"set", metadata !"_ZN11ap_int_baseILi28ELb0ELb1EE3setEPKca", metadata !98, i32 1651, metadata !588, i1 false, i1 false, i32 0, i32 0, null, i32 256, i1 false, null, null, i32 0, metadata !110, i32 1651} ; [ DW_TAG_subprogram ]
!588 = metadata !{i32 786453, i32 0, metadata !"", i32 0, i32 0, i64 0, i64 0, i64 0, i32 0, null, metadata !589, i32 0, i32 0} ; [ DW_TAG_subroutine_type ]
!589 = metadata !{metadata !580, metadata !512, metadata !195, metadata !141}
!590 = metadata !{i32 786478, i32 0, metadata !496, metadata !"operator=", metadata !"operator=", metadata !"_ZN11ap_int_baseILi28ELb0ELb1EEaSEa", metadata !98, i32 1665, metadata !591, i1 false, i1 false, i32 0, i32 0, null, i32 256, i1 false, null, null, i32 0, metadata !110, i32 1665} ; [ DW_TAG_subprogram ]
!591 = metadata !{i32 786453, i32 0, metadata !"", i32 0, i32 0, i64 0, i64 0, i64 0, i32 0, null, metadata !592, i32 0, i32 0} ; [ DW_TAG_subroutine_type ]
!592 = metadata !{metadata !580, metadata !512, metadata !141}
!593 = metadata !{i32 786478, i32 0, metadata !496, metadata !"operator=", metadata !"operator=", metadata !"_ZN11ap_int_baseILi28ELb0ELb1EEaSEh", metadata !98, i32 1666, metadata !594, i1 false, i1 false, i32 0, i32 0, null, i32 256, i1 false, null, null, i32 0, metadata !110, i32 1666} ; [ DW_TAG_subprogram ]
!594 = metadata !{i32 786453, i32 0, metadata !"", i32 0, i32 0, i64 0, i64 0, i64 0, i32 0, null, metadata !595, i32 0, i32 0} ; [ DW_TAG_subroutine_type ]
!595 = metadata !{metadata !580, metadata !512, metadata !145}
!596 = metadata !{i32 786478, i32 0, metadata !496, metadata !"operator=", metadata !"operator=", metadata !"_ZN11ap_int_baseILi28ELb0ELb1EEaSEs", metadata !98, i32 1667, metadata !597, i1 false, i1 false, i32 0, i32 0, null, i32 256, i1 false, null, null, i32 0, metadata !110, i32 1667} ; [ DW_TAG_subprogram ]
!597 = metadata !{i32 786453, i32 0, metadata !"", i32 0, i32 0, i64 0, i64 0, i64 0, i32 0, null, metadata !598, i32 0, i32 0} ; [ DW_TAG_subroutine_type ]
!598 = metadata !{metadata !580, metadata !512, metadata !149}
!599 = metadata !{i32 786478, i32 0, metadata !496, metadata !"operator=", metadata !"operator=", metadata !"_ZN11ap_int_baseILi28ELb0ELb1EEaSEt", metadata !98, i32 1668, metadata !600, i1 false, i1 false, i32 0, i32 0, null, i32 256, i1 false, null, null, i32 0, metadata !110, i32 1668} ; [ DW_TAG_subprogram ]
!600 = metadata !{i32 786453, i32 0, metadata !"", i32 0, i32 0, i64 0, i64 0, i64 0, i32 0, null, metadata !601, i32 0, i32 0} ; [ DW_TAG_subroutine_type ]
!601 = metadata !{metadata !580, metadata !512, metadata !153}
!602 = metadata !{i32 786478, i32 0, metadata !496, metadata !"operator=", metadata !"operator=", metadata !"_ZN11ap_int_baseILi28ELb0ELb1EEaSEi", metadata !98, i32 1669, metadata !603, i1 false, i1 false, i32 0, i32 0, null, i32 256, i1 false, null, null, i32 0, metadata !110, i32 1669} ; [ DW_TAG_subprogram ]
!603 = metadata !{i32 786453, i32 0, metadata !"", i32 0, i32 0, i64 0, i64 0, i64 0, i32 0, null, metadata !604, i32 0, i32 0} ; [ DW_TAG_subroutine_type ]
!604 = metadata !{metadata !580, metadata !512, metadata !114}
!605 = metadata !{i32 786478, i32 0, metadata !496, metadata !"operator=", metadata !"operator=", metadata !"_ZN11ap_int_baseILi28ELb0ELb1EEaSEj", metadata !98, i32 1670, metadata !606, i1 false, i1 false, i32 0, i32 0, null, i32 256, i1 false, null, null, i32 0, metadata !110, i32 1670} ; [ DW_TAG_subprogram ]
!606 = metadata !{i32 786453, i32 0, metadata !"", i32 0, i32 0, i64 0, i64 0, i64 0, i32 0, null, metadata !607, i32 0, i32 0} ; [ DW_TAG_subroutine_type ]
!607 = metadata !{metadata !580, metadata !512, metadata !160}
!608 = metadata !{i32 786478, i32 0, metadata !496, metadata !"operator=", metadata !"operator=", metadata !"_ZN11ap_int_baseILi28ELb0ELb1EEaSEx", metadata !98, i32 1671, metadata !609, i1 false, i1 false, i32 0, i32 0, null, i32 256, i1 false, null, null, i32 0, metadata !110, i32 1671} ; [ DW_TAG_subprogram ]
!609 = metadata !{i32 786453, i32 0, metadata !"", i32 0, i32 0, i64 0, i64 0, i64 0, i32 0, null, metadata !610, i32 0, i32 0} ; [ DW_TAG_subroutine_type ]
!610 = metadata !{metadata !580, metadata !512, metadata !172}
!611 = metadata !{i32 786478, i32 0, metadata !496, metadata !"operator=", metadata !"operator=", metadata !"_ZN11ap_int_baseILi28ELb0ELb1EEaSEy", metadata !98, i32 1672, metadata !612, i1 false, i1 false, i32 0, i32 0, null, i32 256, i1 false, null, null, i32 0, metadata !110, i32 1672} ; [ DW_TAG_subprogram ]
!612 = metadata !{i32 786453, i32 0, metadata !"", i32 0, i32 0, i64 0, i64 0, i64 0, i32 0, null, metadata !613, i32 0, i32 0} ; [ DW_TAG_subroutine_type ]
!613 = metadata !{metadata !580, metadata !512, metadata !177}
!614 = metadata !{i32 786478, i32 0, metadata !496, metadata !"operator unsigned int", metadata !"operator unsigned int", metadata !"_ZNK11ap_int_baseILi28ELb0ELb1EEcvjEv", metadata !98, i32 1710, metadata !615, i1 false, i1 false, i32 0, i32 0, null, i32 256, i1 false, null, null, i32 0, metadata !110, i32 1710} ; [ DW_TAG_subprogram ]
!615 = metadata !{i32 786453, i32 0, metadata !"", i32 0, i32 0, i64 0, i64 0, i64 0, i32 0, null, metadata !616, i32 0, i32 0} ; [ DW_TAG_subroutine_type ]
!616 = metadata !{metadata !617, metadata !622}
!617 = metadata !{i32 786454, metadata !496, metadata !"RetType", metadata !98, i32 1458, i64 0, i64 0, i64 0, i32 0, metadata !618} ; [ DW_TAG_typedef ]
!618 = metadata !{i32 786454, metadata !619, metadata !"Type", metadata !98, i32 1444, i64 0, i64 0, i64 0, i32 0, metadata !160} ; [ DW_TAG_typedef ]
!619 = metadata !{i32 786434, null, metadata !"retval<4, false>", metadata !98, i32 1443, i64 8, i64 8, i32 0, i32 0, null, metadata !255, i32 0, null, metadata !620} ; [ DW_TAG_class_type ]
!620 = metadata !{metadata !621, metadata !115}
!621 = metadata !{i32 786480, null, metadata !"_AP_N", metadata !114, i64 4, null, i32 0, i32 0} ; [ DW_TAG_template_value_parameter ]
!622 = metadata !{i32 786447, i32 0, metadata !"", i32 0, i32 0, i64 64, i64 64, i64 0, i32 64, metadata !570} ; [ DW_TAG_pointer_type ]
!623 = metadata !{i32 786478, i32 0, metadata !496, metadata !"to_bool", metadata !"to_bool", metadata !"_ZNK11ap_int_baseILi28ELb0ELb1EE7to_boolEv", metadata !98, i32 1716, metadata !624, i1 false, i1 false, i32 0, i32 0, null, i32 256, i1 false, null, null, i32 0, metadata !110, i32 1716} ; [ DW_TAG_subprogram ]
!624 = metadata !{i32 786453, i32 0, metadata !"", i32 0, i32 0, i64 0, i64 0, i64 0, i32 0, null, metadata !625, i32 0, i32 0} ; [ DW_TAG_subroutine_type ]
!625 = metadata !{metadata !116, metadata !622}
!626 = metadata !{i32 786478, i32 0, metadata !496, metadata !"to_uchar", metadata !"to_uchar", metadata !"_ZNK11ap_int_baseILi28ELb0ELb1EE8to_ucharEv", metadata !98, i32 1717, metadata !627, i1 false, i1 false, i32 0, i32 0, null, i32 256, i1 false, null, null, i32 0, metadata !110, i32 1717} ; [ DW_TAG_subprogram ]
!627 = metadata !{i32 786453, i32 0, metadata !"", i32 0, i32 0, i64 0, i64 0, i64 0, i32 0, null, metadata !628, i32 0, i32 0} ; [ DW_TAG_subroutine_type ]
!628 = metadata !{metadata !145, metadata !622}
!629 = metadata !{i32 786478, i32 0, metadata !496, metadata !"to_char", metadata !"to_char", metadata !"_ZNK11ap_int_baseILi28ELb0ELb1EE7to_charEv", metadata !98, i32 1718, metadata !630, i1 false, i1 false, i32 0, i32 0, null, i32 256, i1 false, null, null, i32 0, metadata !110, i32 1718} ; [ DW_TAG_subprogram ]
!630 = metadata !{i32 786453, i32 0, metadata !"", i32 0, i32 0, i64 0, i64 0, i64 0, i32 0, null, metadata !631, i32 0, i32 0} ; [ DW_TAG_subroutine_type ]
!631 = metadata !{metadata !141, metadata !622}
!632 = metadata !{i32 786478, i32 0, metadata !496, metadata !"to_ushort", metadata !"to_ushort", metadata !"_ZNK11ap_int_baseILi28ELb0ELb1EE9to_ushortEv", metadata !98, i32 1719, metadata !633, i1 false, i1 false, i32 0, i32 0, null, i32 256, i1 false, null, null, i32 0, metadata !110, i32 1719} ; [ DW_TAG_subprogram ]
!633 = metadata !{i32 786453, i32 0, metadata !"", i32 0, i32 0, i64 0, i64 0, i64 0, i32 0, null, metadata !634, i32 0, i32 0} ; [ DW_TAG_subroutine_type ]
!634 = metadata !{metadata !153, metadata !622}
!635 = metadata !{i32 786478, i32 0, metadata !496, metadata !"to_short", metadata !"to_short", metadata !"_ZNK11ap_int_baseILi28ELb0ELb1EE8to_shortEv", metadata !98, i32 1720, metadata !636, i1 false, i1 false, i32 0, i32 0, null, i32 256, i1 false, null, null, i32 0, metadata !110, i32 1720} ; [ DW_TAG_subprogram ]
!636 = metadata !{i32 786453, i32 0, metadata !"", i32 0, i32 0, i64 0, i64 0, i64 0, i32 0, null, metadata !637, i32 0, i32 0} ; [ DW_TAG_subroutine_type ]
!637 = metadata !{metadata !149, metadata !622}
!638 = metadata !{i32 786478, i32 0, metadata !496, metadata !"to_int", metadata !"to_int", metadata !"_ZNK11ap_int_baseILi28ELb0ELb1EE6to_intEv", metadata !98, i32 1721, metadata !639, i1 false, i1 false, i32 0, i32 0, null, i32 256, i1 false, null, null, i32 0, metadata !110, i32 1721} ; [ DW_TAG_subprogram ]
!639 = metadata !{i32 786453, i32 0, metadata !"", i32 0, i32 0, i64 0, i64 0, i64 0, i32 0, null, metadata !640, i32 0, i32 0} ; [ DW_TAG_subroutine_type ]
!640 = metadata !{metadata !114, metadata !622}
!641 = metadata !{i32 786478, i32 0, metadata !496, metadata !"to_uint", metadata !"to_uint", metadata !"_ZNK11ap_int_baseILi28ELb0ELb1EE7to_uintEv", metadata !98, i32 1722, metadata !642, i1 false, i1 false, i32 0, i32 0, null, i32 256, i1 false, null, null, i32 0, metadata !110, i32 1722} ; [ DW_TAG_subprogram ]
!642 = metadata !{i32 786453, i32 0, metadata !"", i32 0, i32 0, i64 0, i64 0, i64 0, i32 0, null, metadata !643, i32 0, i32 0} ; [ DW_TAG_subroutine_type ]
!643 = metadata !{metadata !160, metadata !622}
!644 = metadata !{i32 786478, i32 0, metadata !496, metadata !"to_long", metadata !"to_long", metadata !"_ZNK11ap_int_baseILi28ELb0ELb1EE7to_longEv", metadata !98, i32 1723, metadata !645, i1 false, i1 false, i32 0, i32 0, null, i32 256, i1 false, null, null, i32 0, metadata !110, i32 1723} ; [ DW_TAG_subprogram ]
!645 = metadata !{i32 786453, i32 0, metadata !"", i32 0, i32 0, i64 0, i64 0, i64 0, i32 0, null, metadata !646, i32 0, i32 0} ; [ DW_TAG_subroutine_type ]
!646 = metadata !{metadata !164, metadata !622}
!647 = metadata !{i32 786478, i32 0, metadata !496, metadata !"to_ulong", metadata !"to_ulong", metadata !"_ZNK11ap_int_baseILi28ELb0ELb1EE8to_ulongEv", metadata !98, i32 1724, metadata !648, i1 false, i1 false, i32 0, i32 0, null, i32 256, i1 false, null, null, i32 0, metadata !110, i32 1724} ; [ DW_TAG_subprogram ]
!648 = metadata !{i32 786453, i32 0, metadata !"", i32 0, i32 0, i64 0, i64 0, i64 0, i32 0, null, metadata !649, i32 0, i32 0} ; [ DW_TAG_subroutine_type ]
!649 = metadata !{metadata !168, metadata !622}
!650 = metadata !{i32 786478, i32 0, metadata !496, metadata !"to_int64", metadata !"to_int64", metadata !"_ZNK11ap_int_baseILi28ELb0ELb1EE8to_int64Ev", metadata !98, i32 1725, metadata !651, i1 false, i1 false, i32 0, i32 0, null, i32 256, i1 false, null, null, i32 0, metadata !110, i32 1725} ; [ DW_TAG_subprogram ]
!651 = metadata !{i32 786453, i32 0, metadata !"", i32 0, i32 0, i64 0, i64 0, i64 0, i32 0, null, metadata !652, i32 0, i32 0} ; [ DW_TAG_subroutine_type ]
!652 = metadata !{metadata !172, metadata !622}
!653 = metadata !{i32 786478, i32 0, metadata !496, metadata !"to_uint64", metadata !"to_uint64", metadata !"_ZNK11ap_int_baseILi28ELb0ELb1EE9to_uint64Ev", metadata !98, i32 1726, metadata !654, i1 false, i1 false, i32 0, i32 0, null, i32 256, i1 false, null, null, i32 0, metadata !110, i32 1726} ; [ DW_TAG_subprogram ]
!654 = metadata !{i32 786453, i32 0, metadata !"", i32 0, i32 0, i64 0, i64 0, i64 0, i32 0, null, metadata !655, i32 0, i32 0} ; [ DW_TAG_subroutine_type ]
!655 = metadata !{metadata !177, metadata !622}
!656 = metadata !{i32 786478, i32 0, metadata !496, metadata !"to_double", metadata !"to_double", metadata !"_ZNK11ap_int_baseILi28ELb0ELb1EE9to_doubleEv", metadata !98, i32 1727, metadata !657, i1 false, i1 false, i32 0, i32 0, null, i32 256, i1 false, null, null, i32 0, metadata !110, i32 1727} ; [ DW_TAG_subprogram ]
!657 = metadata !{i32 786453, i32 0, metadata !"", i32 0, i32 0, i64 0, i64 0, i64 0, i32 0, null, metadata !658, i32 0, i32 0} ; [ DW_TAG_subroutine_type ]
!658 = metadata !{metadata !191, metadata !622}
!659 = metadata !{i32 786478, i32 0, metadata !496, metadata !"length", metadata !"length", metadata !"_ZNK11ap_int_baseILi28ELb0ELb1EE6lengthEv", metadata !98, i32 1741, metadata !639, i1 false, i1 false, i32 0, i32 0, null, i32 256, i1 false, null, null, i32 0, metadata !110, i32 1741} ; [ DW_TAG_subprogram ]
!660 = metadata !{i32 786478, i32 0, metadata !496, metadata !"length", metadata !"length", metadata !"_ZNVK11ap_int_baseILi28ELb0ELb1EE6lengthEv", metadata !98, i32 1742, metadata !661, i1 false, i1 false, i32 0, i32 0, null, i32 256, i1 false, null, null, i32 0, metadata !110, i32 1742} ; [ DW_TAG_subprogram ]
!661 = metadata !{i32 786453, i32 0, metadata !"", i32 0, i32 0, i64 0, i64 0, i64 0, i32 0, null, metadata !662, i32 0, i32 0} ; [ DW_TAG_subroutine_type ]
!662 = metadata !{metadata !114, metadata !663}
!663 = metadata !{i32 786447, i32 0, metadata !"", i32 0, i32 0, i64 64, i64 64, i64 0, i32 64, metadata !575} ; [ DW_TAG_pointer_type ]
!664 = metadata !{i32 786478, i32 0, metadata !496, metadata !"reverse", metadata !"reverse", metadata !"_ZN11ap_int_baseILi28ELb0ELb1EE7reverseEv", metadata !98, i32 1747, metadata !665, i1 false, i1 false, i32 0, i32 0, null, i32 256, i1 false, null, null, i32 0, metadata !110, i32 1747} ; [ DW_TAG_subprogram ]
!665 = metadata !{i32 786453, i32 0, metadata !"", i32 0, i32 0, i64 0, i64 0, i64 0, i32 0, null, metadata !666, i32 0, i32 0} ; [ DW_TAG_subroutine_type ]
!666 = metadata !{metadata !580, metadata !512}
!667 = metadata !{i32 786478, i32 0, metadata !496, metadata !"iszero", metadata !"iszero", metadata !"_ZNK11ap_int_baseILi28ELb0ELb1EE6iszeroEv", metadata !98, i32 1753, metadata !624, i1 false, i1 false, i32 0, i32 0, null, i32 256, i1 false, null, null, i32 0, metadata !110, i32 1753} ; [ DW_TAG_subprogram ]
!668 = metadata !{i32 786478, i32 0, metadata !496, metadata !"is_zero", metadata !"is_zero", metadata !"_ZNK11ap_int_baseILi28ELb0ELb1EE7is_zeroEv", metadata !98, i32 1758, metadata !624, i1 false, i1 false, i32 0, i32 0, null, i32 256, i1 false, null, null, i32 0, metadata !110, i32 1758} ; [ DW_TAG_subprogram ]
!669 = metadata !{i32 786478, i32 0, metadata !496, metadata !"sign", metadata !"sign", metadata !"_ZNK11ap_int_baseILi28ELb0ELb1EE4signEv", metadata !98, i32 1763, metadata !624, i1 false, i1 false, i32 0, i32 0, null, i32 256, i1 false, null, null, i32 0, metadata !110, i32 1763} ; [ DW_TAG_subprogram ]
!670 = metadata !{i32 786478, i32 0, metadata !496, metadata !"clear", metadata !"clear", metadata !"_ZN11ap_int_baseILi28ELb0ELb1EE5clearEi", metadata !98, i32 1771, metadata !529, i1 false, i1 false, i32 0, i32 0, null, i32 256, i1 false, null, null, i32 0, metadata !110, i32 1771} ; [ DW_TAG_subprogram ]
!671 = metadata !{i32 786478, i32 0, metadata !496, metadata !"invert", metadata !"invert", metadata !"_ZN11ap_int_baseILi28ELb0ELb1EE6invertEi", metadata !98, i32 1777, metadata !529, i1 false, i1 false, i32 0, i32 0, null, i32 256, i1 false, null, null, i32 0, metadata !110, i32 1777} ; [ DW_TAG_subprogram ]
!672 = metadata !{i32 786478, i32 0, metadata !496, metadata !"test", metadata !"test", metadata !"_ZNK11ap_int_baseILi28ELb0ELb1EE4testEi", metadata !98, i32 1785, metadata !673, i1 false, i1 false, i32 0, i32 0, null, i32 256, i1 false, null, null, i32 0, metadata !110, i32 1785} ; [ DW_TAG_subprogram ]
!673 = metadata !{i32 786453, i32 0, metadata !"", i32 0, i32 0, i64 0, i64 0, i64 0, i32 0, null, metadata !674, i32 0, i32 0} ; [ DW_TAG_subroutine_type ]
!674 = metadata !{metadata !116, metadata !622, metadata !114}
!675 = metadata !{i32 786478, i32 0, metadata !496, metadata !"set", metadata !"set", metadata !"_ZN11ap_int_baseILi28ELb0ELb1EE3setEi", metadata !98, i32 1791, metadata !529, i1 false, i1 false, i32 0, i32 0, null, i32 256, i1 false, null, null, i32 0, metadata !110, i32 1791} ; [ DW_TAG_subprogram ]
!676 = metadata !{i32 786478, i32 0, metadata !496, metadata !"set", metadata !"set", metadata !"_ZN11ap_int_baseILi28ELb0ELb1EE3setEib", metadata !98, i32 1797, metadata !677, i1 false, i1 false, i32 0, i32 0, null, i32 256, i1 false, null, null, i32 0, metadata !110, i32 1797} ; [ DW_TAG_subprogram ]
!677 = metadata !{i32 786453, i32 0, metadata !"", i32 0, i32 0, i64 0, i64 0, i64 0, i32 0, null, metadata !678, i32 0, i32 0} ; [ DW_TAG_subroutine_type ]
!678 = metadata !{null, metadata !512, metadata !114, metadata !116}
!679 = metadata !{i32 786478, i32 0, metadata !496, metadata !"lrotate", metadata !"lrotate", metadata !"_ZN11ap_int_baseILi28ELb0ELb1EE7lrotateEi", metadata !98, i32 1804, metadata !529, i1 false, i1 false, i32 0, i32 0, null, i32 256, i1 false, null, null, i32 0, metadata !110, i32 1804} ; [ DW_TAG_subprogram ]
!680 = metadata !{i32 786478, i32 0, metadata !496, metadata !"rrotate", metadata !"rrotate", metadata !"_ZN11ap_int_baseILi28ELb0ELb1EE7rrotateEi", metadata !98, i32 1813, metadata !529, i1 false, i1 false, i32 0, i32 0, null, i32 256, i1 false, null, null, i32 0, metadata !110, i32 1813} ; [ DW_TAG_subprogram ]
!681 = metadata !{i32 786478, i32 0, metadata !496, metadata !"set_bit", metadata !"set_bit", metadata !"_ZN11ap_int_baseILi28ELb0ELb1EE7set_bitEib", metadata !98, i32 1821, metadata !677, i1 false, i1 false, i32 0, i32 0, null, i32 256, i1 false, null, null, i32 0, metadata !110, i32 1821} ; [ DW_TAG_subprogram ]
!682 = metadata !{i32 786478, i32 0, metadata !496, metadata !"get_bit", metadata !"get_bit", metadata !"_ZNK11ap_int_baseILi28ELb0ELb1EE7get_bitEi", metadata !98, i32 1826, metadata !673, i1 false, i1 false, i32 0, i32 0, null, i32 256, i1 false, null, null, i32 0, metadata !110, i32 1826} ; [ DW_TAG_subprogram ]
!683 = metadata !{i32 786478, i32 0, metadata !496, metadata !"b_not", metadata !"b_not", metadata !"_ZN11ap_int_baseILi28ELb0ELb1EE5b_notEv", metadata !98, i32 1831, metadata !510, i1 false, i1 false, i32 0, i32 0, null, i32 256, i1 false, null, null, i32 0, metadata !110, i32 1831} ; [ DW_TAG_subprogram ]
!684 = metadata !{i32 786478, i32 0, metadata !496, metadata !"countLeadingZeros", metadata !"countLeadingZeros", metadata !"_ZN11ap_int_baseILi28ELb0ELb1EE17countLeadingZerosEv", metadata !98, i32 1838, metadata !685, i1 false, i1 false, i32 0, i32 0, null, i32 256, i1 false, null, null, i32 0, metadata !110, i32 1838} ; [ DW_TAG_subprogram ]
!685 = metadata !{i32 786453, i32 0, metadata !"", i32 0, i32 0, i64 0, i64 0, i64 0, i32 0, null, metadata !686, i32 0, i32 0} ; [ DW_TAG_subroutine_type ]
!686 = metadata !{metadata !114, metadata !512}
!687 = metadata !{i32 786478, i32 0, metadata !496, metadata !"operator++", metadata !"operator++", metadata !"_ZN11ap_int_baseILi28ELb0ELb1EEppEv", metadata !98, i32 1895, metadata !665, i1 false, i1 false, i32 0, i32 0, null, i32 256, i1 false, null, null, i32 0, metadata !110, i32 1895} ; [ DW_TAG_subprogram ]
!688 = metadata !{i32 786478, i32 0, metadata !496, metadata !"operator--", metadata !"operator--", metadata !"_ZN11ap_int_baseILi28ELb0ELb1EEmmEv", metadata !98, i32 1899, metadata !665, i1 false, i1 false, i32 0, i32 0, null, i32 256, i1 false, null, null, i32 0, metadata !110, i32 1899} ; [ DW_TAG_subprogram ]
!689 = metadata !{i32 786478, i32 0, metadata !496, metadata !"operator++", metadata !"operator++", metadata !"_ZN11ap_int_baseILi28ELb0ELb1EEppEi", metadata !98, i32 1907, metadata !690, i1 false, i1 false, i32 0, i32 0, null, i32 256, i1 false, null, null, i32 0, metadata !110, i32 1907} ; [ DW_TAG_subprogram ]
!690 = metadata !{i32 786453, i32 0, metadata !"", i32 0, i32 0, i64 0, i64 0, i64 0, i32 0, null, metadata !691, i32 0, i32 0} ; [ DW_TAG_subroutine_type ]
!691 = metadata !{metadata !570, metadata !512, metadata !114}
!692 = metadata !{i32 786478, i32 0, metadata !496, metadata !"operator--", metadata !"operator--", metadata !"_ZN11ap_int_baseILi28ELb0ELb1EEmmEi", metadata !98, i32 1912, metadata !690, i1 false, i1 false, i32 0, i32 0, null, i32 256, i1 false, null, null, i32 0, metadata !110, i32 1912} ; [ DW_TAG_subprogram ]
!693 = metadata !{i32 786478, i32 0, metadata !496, metadata !"operator+", metadata !"operator+", metadata !"_ZNK11ap_int_baseILi28ELb0ELb1EEpsEv", metadata !98, i32 1921, metadata !694, i1 false, i1 false, i32 0, i32 0, null, i32 256, i1 false, null, null, i32 0, metadata !110, i32 1921} ; [ DW_TAG_subprogram ]
!694 = metadata !{i32 786453, i32 0, metadata !"", i32 0, i32 0, i64 0, i64 0, i64 0, i32 0, null, metadata !695, i32 0, i32 0} ; [ DW_TAG_subroutine_type ]
!695 = metadata !{metadata !496, metadata !622}
!696 = metadata !{i32 786478, i32 0, metadata !496, metadata !"operator!", metadata !"operator!", metadata !"_ZNK11ap_int_baseILi28ELb0ELb1EEntEv", metadata !98, i32 1927, metadata !624, i1 false, i1 false, i32 0, i32 0, null, i32 256, i1 false, null, null, i32 0, metadata !110, i32 1927} ; [ DW_TAG_subprogram ]
!697 = metadata !{i32 786478, i32 0, metadata !496, metadata !"operator-", metadata !"operator-", metadata !"_ZNK11ap_int_baseILi28ELb0ELb1EEngEv", metadata !98, i32 1932, metadata !698, i1 false, i1 false, i32 0, i32 0, null, i32 256, i1 false, null, null, i32 0, metadata !110, i32 1932} ; [ DW_TAG_subprogram ]
!698 = metadata !{i32 786453, i32 0, metadata !"", i32 0, i32 0, i64 0, i64 0, i64 0, i32 0, null, metadata !699, i32 0, i32 0} ; [ DW_TAG_subroutine_type ]
!699 = metadata !{metadata !700, metadata !622}
!700 = metadata !{i32 786434, null, metadata !"ap_int_base<29, true, true>", metadata !98, i32 651, i32 0, i32 0, i32 0, i32 4, null, null, i32 0} ; [ DW_TAG_class_type ]
!701 = metadata !{i32 786478, i32 0, metadata !496, metadata !"range", metadata !"range", metadata !"_ZN11ap_int_baseILi28ELb0ELb1EE5rangeEii", metadata !98, i32 2062, metadata !702, i1 false, i1 false, i32 0, i32 0, null, i32 256, i1 false, null, null, i32 0, metadata !110, i32 2062} ; [ DW_TAG_subprogram ]
!702 = metadata !{i32 786453, i32 0, metadata !"", i32 0, i32 0, i64 0, i64 0, i64 0, i32 0, null, metadata !703, i32 0, i32 0} ; [ DW_TAG_subroutine_type ]
!703 = metadata !{metadata !704, metadata !512, metadata !114, metadata !114}
!704 = metadata !{i32 786434, null, metadata !"ap_range_ref<28, false>", metadata !98, i32 925, i64 128, i64 64, i32 0, i32 0, null, metadata !705, i32 0, null, metadata !764} ; [ DW_TAG_class_type ]
!705 = metadata !{metadata !706, metadata !707, metadata !708, metadata !709, metadata !715, metadata !719, metadata !723, metadata !726, metadata !730, metadata !733, metadata !737, metadata !740, metadata !741, metadata !744, metadata !747, metadata !750, metadata !753, metadata !756, metadata !759, metadata !760, metadata !761}
!706 = metadata !{i32 786445, metadata !704, metadata !"d_bv", metadata !98, i32 926, i64 64, i64 64, i64 0, i32 0, metadata !580} ; [ DW_TAG_member ]
!707 = metadata !{i32 786445, metadata !704, metadata !"l_index", metadata !98, i32 927, i64 32, i64 32, i64 64, i32 0, metadata !114} ; [ DW_TAG_member ]
!708 = metadata !{i32 786445, metadata !704, metadata !"h_index", metadata !98, i32 928, i64 32, i64 32, i64 96, i32 0, metadata !114} ; [ DW_TAG_member ]
!709 = metadata !{i32 786478, i32 0, metadata !704, metadata !"ap_range_ref", metadata !"ap_range_ref", metadata !"", metadata !98, i32 931, metadata !710, i1 false, i1 false, i32 0, i32 0, null, i32 256, i1 false, null, null, i32 0, metadata !110, i32 931} ; [ DW_TAG_subprogram ]
!710 = metadata !{i32 786453, i32 0, metadata !"", i32 0, i32 0, i64 0, i64 0, i64 0, i32 0, null, metadata !711, i32 0, i32 0} ; [ DW_TAG_subroutine_type ]
!711 = metadata !{null, metadata !712, metadata !713}
!712 = metadata !{i32 786447, i32 0, metadata !"", i32 0, i32 0, i64 64, i64 64, i64 0, i32 64, metadata !704} ; [ DW_TAG_pointer_type ]
!713 = metadata !{i32 786448, null, null, null, i32 0, i64 0, i64 0, i64 0, i32 0, metadata !714} ; [ DW_TAG_reference_type ]
!714 = metadata !{i32 786470, null, metadata !"", null, i32 0, i64 0, i64 0, i64 0, i32 0, metadata !704} ; [ DW_TAG_const_type ]
!715 = metadata !{i32 786478, i32 0, metadata !704, metadata !"ap_range_ref", metadata !"ap_range_ref", metadata !"", metadata !98, i32 934, metadata !716, i1 false, i1 false, i32 0, i32 0, null, i32 256, i1 false, null, null, i32 0, metadata !110, i32 934} ; [ DW_TAG_subprogram ]
!716 = metadata !{i32 786453, i32 0, metadata !"", i32 0, i32 0, i64 0, i64 0, i64 0, i32 0, null, metadata !717, i32 0, i32 0} ; [ DW_TAG_subroutine_type ]
!717 = metadata !{null, metadata !712, metadata !718, metadata !114, metadata !114}
!718 = metadata !{i32 786447, null, metadata !"", null, i32 0, i64 64, i64 64, i64 0, i32 0, metadata !496} ; [ DW_TAG_pointer_type ]
!719 = metadata !{i32 786478, i32 0, metadata !704, metadata !"operator ap_int_base", metadata !"operator ap_int_base", metadata !"_ZNK12ap_range_refILi28ELb0EEcv11ap_int_baseILi28ELb0ELb1EEEv", metadata !98, i32 939, metadata !720, i1 false, i1 false, i32 0, i32 0, null, i32 256, i1 false, null, null, i32 0, metadata !110, i32 939} ; [ DW_TAG_subprogram ]
!720 = metadata !{i32 786453, i32 0, metadata !"", i32 0, i32 0, i64 0, i64 0, i64 0, i32 0, null, metadata !721, i32 0, i32 0} ; [ DW_TAG_subroutine_type ]
!721 = metadata !{metadata !496, metadata !722}
!722 = metadata !{i32 786447, i32 0, metadata !"", i32 0, i32 0, i64 64, i64 64, i64 0, i32 64, metadata !714} ; [ DW_TAG_pointer_type ]
!723 = metadata !{i32 786478, i32 0, metadata !704, metadata !"operator unsigned long long", metadata !"operator unsigned long long", metadata !"_ZNK12ap_range_refILi28ELb0EEcvyEv", metadata !98, i32 945, metadata !724, i1 false, i1 false, i32 0, i32 0, null, i32 256, i1 false, null, null, i32 0, metadata !110, i32 945} ; [ DW_TAG_subprogram ]
!724 = metadata !{i32 786453, i32 0, metadata !"", i32 0, i32 0, i64 0, i64 0, i64 0, i32 0, null, metadata !725, i32 0, i32 0} ; [ DW_TAG_subroutine_type ]
!725 = metadata !{metadata !178, metadata !722}
!726 = metadata !{i32 786478, i32 0, metadata !704, metadata !"operator=", metadata !"operator=", metadata !"_ZN12ap_range_refILi28ELb0EEaSEy", metadata !98, i32 949, metadata !727, i1 false, i1 false, i32 0, i32 0, null, i32 256, i1 false, null, null, i32 0, metadata !110, i32 949} ; [ DW_TAG_subprogram ]
!727 = metadata !{i32 786453, i32 0, metadata !"", i32 0, i32 0, i64 0, i64 0, i64 0, i32 0, null, metadata !728, i32 0, i32 0} ; [ DW_TAG_subroutine_type ]
!728 = metadata !{metadata !729, metadata !712, metadata !178}
!729 = metadata !{i32 786448, null, null, null, i32 0, i64 0, i64 0, i64 0, i32 0, metadata !704} ; [ DW_TAG_reference_type ]
!730 = metadata !{i32 786478, i32 0, metadata !704, metadata !"operator=", metadata !"operator=", metadata !"_ZN12ap_range_refILi28ELb0EEaSERKS0_", metadata !98, i32 967, metadata !731, i1 false, i1 false, i32 0, i32 0, null, i32 256, i1 false, null, null, i32 0, metadata !110, i32 967} ; [ DW_TAG_subprogram ]
!731 = metadata !{i32 786453, i32 0, metadata !"", i32 0, i32 0, i64 0, i64 0, i64 0, i32 0, null, metadata !732, i32 0, i32 0} ; [ DW_TAG_subroutine_type ]
!732 = metadata !{metadata !729, metadata !712, metadata !713}
!733 = metadata !{i32 786478, i32 0, metadata !704, metadata !"operator,", metadata !"operator,", metadata !"_ZN12ap_range_refILi28ELb0EEcmER11ap_int_baseILi28ELb0ELb1EE", metadata !98, i32 1022, metadata !734, i1 false, i1 false, i32 0, i32 0, null, i32 256, i1 false, null, null, i32 0, metadata !110, i32 1022} ; [ DW_TAG_subprogram ]
!734 = metadata !{i32 786453, i32 0, metadata !"", i32 0, i32 0, i64 0, i64 0, i64 0, i32 0, null, metadata !735, i32 0, i32 0} ; [ DW_TAG_subroutine_type ]
!735 = metadata !{metadata !736, metadata !712, metadata !580}
!736 = metadata !{i32 786434, null, metadata !"ap_concat_ref<28, ap_range_ref<28, false>, 28, ap_int_base<28, false, true> >", metadata !98, i32 688, i32 0, i32 0, i32 0, i32 4, null, null, i32 0} ; [ DW_TAG_class_type ]
!737 = metadata !{i32 786478, i32 0, metadata !704, metadata !"length", metadata !"length", metadata !"_ZNK12ap_range_refILi28ELb0EE6lengthEv", metadata !98, i32 1187, metadata !738, i1 false, i1 false, i32 0, i32 0, null, i32 256, i1 false, null, null, i32 0, metadata !110, i32 1187} ; [ DW_TAG_subprogram ]
!738 = metadata !{i32 786453, i32 0, metadata !"", i32 0, i32 0, i64 0, i64 0, i64 0, i32 0, null, metadata !739, i32 0, i32 0} ; [ DW_TAG_subroutine_type ]
!739 = metadata !{metadata !114, metadata !722}
!740 = metadata !{i32 786478, i32 0, metadata !704, metadata !"to_int", metadata !"to_int", metadata !"_ZNK12ap_range_refILi28ELb0EE6to_intEv", metadata !98, i32 1191, metadata !738, i1 false, i1 false, i32 0, i32 0, null, i32 256, i1 false, null, null, i32 0, metadata !110, i32 1191} ; [ DW_TAG_subprogram ]
!741 = metadata !{i32 786478, i32 0, metadata !704, metadata !"to_uint", metadata !"to_uint", metadata !"_ZNK12ap_range_refILi28ELb0EE7to_uintEv", metadata !98, i32 1194, metadata !742, i1 false, i1 false, i32 0, i32 0, null, i32 256, i1 false, null, null, i32 0, metadata !110, i32 1194} ; [ DW_TAG_subprogram ]
!742 = metadata !{i32 786453, i32 0, metadata !"", i32 0, i32 0, i64 0, i64 0, i64 0, i32 0, null, metadata !743, i32 0, i32 0} ; [ DW_TAG_subroutine_type ]
!743 = metadata !{metadata !160, metadata !722}
!744 = metadata !{i32 786478, i32 0, metadata !704, metadata !"to_long", metadata !"to_long", metadata !"_ZNK12ap_range_refILi28ELb0EE7to_longEv", metadata !98, i32 1197, metadata !745, i1 false, i1 false, i32 0, i32 0, null, i32 256, i1 false, null, null, i32 0, metadata !110, i32 1197} ; [ DW_TAG_subprogram ]
!745 = metadata !{i32 786453, i32 0, metadata !"", i32 0, i32 0, i64 0, i64 0, i64 0, i32 0, null, metadata !746, i32 0, i32 0} ; [ DW_TAG_subroutine_type ]
!746 = metadata !{metadata !164, metadata !722}
!747 = metadata !{i32 786478, i32 0, metadata !704, metadata !"to_ulong", metadata !"to_ulong", metadata !"_ZNK12ap_range_refILi28ELb0EE8to_ulongEv", metadata !98, i32 1200, metadata !748, i1 false, i1 false, i32 0, i32 0, null, i32 256, i1 false, null, null, i32 0, metadata !110, i32 1200} ; [ DW_TAG_subprogram ]
!748 = metadata !{i32 786453, i32 0, metadata !"", i32 0, i32 0, i64 0, i64 0, i64 0, i32 0, null, metadata !749, i32 0, i32 0} ; [ DW_TAG_subroutine_type ]
!749 = metadata !{metadata !168, metadata !722}
!750 = metadata !{i32 786478, i32 0, metadata !704, metadata !"to_int64", metadata !"to_int64", metadata !"_ZNK12ap_range_refILi28ELb0EE8to_int64Ev", metadata !98, i32 1203, metadata !751, i1 false, i1 false, i32 0, i32 0, null, i32 256, i1 false, null, null, i32 0, metadata !110, i32 1203} ; [ DW_TAG_subprogram ]
!751 = metadata !{i32 786453, i32 0, metadata !"", i32 0, i32 0, i64 0, i64 0, i64 0, i32 0, null, metadata !752, i32 0, i32 0} ; [ DW_TAG_subroutine_type ]
!752 = metadata !{metadata !172, metadata !722}
!753 = metadata !{i32 786478, i32 0, metadata !704, metadata !"to_uint64", metadata !"to_uint64", metadata !"_ZNK12ap_range_refILi28ELb0EE9to_uint64Ev", metadata !98, i32 1206, metadata !754, i1 false, i1 false, i32 0, i32 0, null, i32 256, i1 false, null, null, i32 0, metadata !110, i32 1206} ; [ DW_TAG_subprogram ]
!754 = metadata !{i32 786453, i32 0, metadata !"", i32 0, i32 0, i64 0, i64 0, i64 0, i32 0, null, metadata !755, i32 0, i32 0} ; [ DW_TAG_subroutine_type ]
!755 = metadata !{metadata !177, metadata !722}
!756 = metadata !{i32 786478, i32 0, metadata !704, metadata !"and_reduce", metadata !"and_reduce", metadata !"_ZNK12ap_range_refILi28ELb0EE10and_reduceEv", metadata !98, i32 1209, metadata !757, i1 false, i1 false, i32 0, i32 0, null, i32 256, i1 false, null, null, i32 0, metadata !110, i32 1209} ; [ DW_TAG_subprogram ]
!757 = metadata !{i32 786453, i32 0, metadata !"", i32 0, i32 0, i64 0, i64 0, i64 0, i32 0, null, metadata !758, i32 0, i32 0} ; [ DW_TAG_subroutine_type ]
!758 = metadata !{metadata !116, metadata !722}
!759 = metadata !{i32 786478, i32 0, metadata !704, metadata !"or_reduce", metadata !"or_reduce", metadata !"_ZNK12ap_range_refILi28ELb0EE9or_reduceEv", metadata !98, i32 1220, metadata !757, i1 false, i1 false, i32 0, i32 0, null, i32 256, i1 false, null, null, i32 0, metadata !110, i32 1220} ; [ DW_TAG_subprogram ]
!760 = metadata !{i32 786478, i32 0, metadata !704, metadata !"xor_reduce", metadata !"xor_reduce", metadata !"_ZNK12ap_range_refILi28ELb0EE10xor_reduceEv", metadata !98, i32 1231, metadata !757, i1 false, i1 false, i32 0, i32 0, null, i32 256, i1 false, null, null, i32 0, metadata !110, i32 1231} ; [ DW_TAG_subprogram ]
!761 = metadata !{i32 786478, i32 0, metadata !704, metadata !"~ap_range_ref", metadata !"~ap_range_ref", metadata !"", metadata !98, i32 925, metadata !762, i1 false, i1 false, i32 0, i32 0, null, i32 320, i1 false, null, null, i32 0, metadata !110, i32 925} ; [ DW_TAG_subprogram ]
!762 = metadata !{i32 786453, i32 0, metadata !"", i32 0, i32 0, i64 0, i64 0, i64 0, i32 0, null, metadata !763, i32 0, i32 0} ; [ DW_TAG_subroutine_type ]
!763 = metadata !{null, metadata !712}
!764 = metadata !{metadata !765, metadata !115}
!765 = metadata !{i32 786480, null, metadata !"_AP_W", metadata !114, i64 28, null, i32 0, i32 0} ; [ DW_TAG_template_value_parameter ]
!766 = metadata !{i32 786478, i32 0, metadata !496, metadata !"operator()", metadata !"operator()", metadata !"_ZN11ap_int_baseILi28ELb0ELb1EEclEii", metadata !98, i32 2068, metadata !702, i1 false, i1 false, i32 0, i32 0, null, i32 256, i1 false, null, null, i32 0, metadata !110, i32 2068} ; [ DW_TAG_subprogram ]
!767 = metadata !{i32 786478, i32 0, metadata !496, metadata !"range", metadata !"range", metadata !"_ZNK11ap_int_baseILi28ELb0ELb1EE5rangeEii", metadata !98, i32 2074, metadata !768, i1 false, i1 false, i32 0, i32 0, null, i32 256, i1 false, null, null, i32 0, metadata !110, i32 2074} ; [ DW_TAG_subprogram ]
!768 = metadata !{i32 786453, i32 0, metadata !"", i32 0, i32 0, i64 0, i64 0, i64 0, i32 0, null, metadata !769, i32 0, i32 0} ; [ DW_TAG_subroutine_type ]
!769 = metadata !{metadata !704, metadata !622, metadata !114, metadata !114}
!770 = metadata !{i32 786478, i32 0, metadata !496, metadata !"operator()", metadata !"operator()", metadata !"_ZNK11ap_int_baseILi28ELb0ELb1EEclEii", metadata !98, i32 2080, metadata !768, i1 false, i1 false, i32 0, i32 0, null, i32 256, i1 false, null, null, i32 0, metadata !110, i32 2080} ; [ DW_TAG_subprogram ]
!771 = metadata !{i32 786478, i32 0, metadata !496, metadata !"operator[]", metadata !"operator[]", metadata !"_ZN11ap_int_baseILi28ELb0ELb1EEixEi", metadata !98, i32 2099, metadata !772, i1 false, i1 false, i32 0, i32 0, null, i32 256, i1 false, null, null, i32 0, metadata !110, i32 2099} ; [ DW_TAG_subprogram ]
!772 = metadata !{i32 786453, i32 0, metadata !"", i32 0, i32 0, i64 0, i64 0, i64 0, i32 0, null, metadata !773, i32 0, i32 0} ; [ DW_TAG_subroutine_type ]
!773 = metadata !{metadata !774, metadata !512, metadata !114}
!774 = metadata !{i32 786434, null, metadata !"ap_bit_ref<28, false>", metadata !98, i32 1249, i32 0, i32 0, i32 0, i32 4, null, null, i32 0} ; [ DW_TAG_class_type ]
!775 = metadata !{i32 786478, i32 0, metadata !496, metadata !"operator[]", metadata !"operator[]", metadata !"_ZNK11ap_int_baseILi28ELb0ELb1EEixEi", metadata !98, i32 2113, metadata !673, i1 false, i1 false, i32 0, i32 0, null, i32 256, i1 false, null, null, i32 0, metadata !110, i32 2113} ; [ DW_TAG_subprogram ]
!776 = metadata !{i32 786478, i32 0, metadata !496, metadata !"bit", metadata !"bit", metadata !"_ZN11ap_int_baseILi28ELb0ELb1EE3bitEi", metadata !98, i32 2127, metadata !772, i1 false, i1 false, i32 0, i32 0, null, i32 256, i1 false, null, null, i32 0, metadata !110, i32 2127} ; [ DW_TAG_subprogram ]
!777 = metadata !{i32 786478, i32 0, metadata !496, metadata !"bit", metadata !"bit", metadata !"_ZNK11ap_int_baseILi28ELb0ELb1EE3bitEi", metadata !98, i32 2141, metadata !673, i1 false, i1 false, i32 0, i32 0, null, i32 256, i1 false, null, null, i32 0, metadata !110, i32 2141} ; [ DW_TAG_subprogram ]
!778 = metadata !{i32 786478, i32 0, metadata !496, metadata !"and_reduce", metadata !"and_reduce", metadata !"_ZN11ap_int_baseILi28ELb0ELb1EE10and_reduceEv", metadata !98, i32 2321, metadata !779, i1 false, i1 false, i32 0, i32 0, null, i32 256, i1 false, null, null, i32 0, metadata !110, i32 2321} ; [ DW_TAG_subprogram ]
!779 = metadata !{i32 786453, i32 0, metadata !"", i32 0, i32 0, i64 0, i64 0, i64 0, i32 0, null, metadata !780, i32 0, i32 0} ; [ DW_TAG_subroutine_type ]
!780 = metadata !{metadata !116, metadata !512}
!781 = metadata !{i32 786478, i32 0, metadata !496, metadata !"nand_reduce", metadata !"nand_reduce", metadata !"_ZN11ap_int_baseILi28ELb0ELb1EE11nand_reduceEv", metadata !98, i32 2324, metadata !779, i1 false, i1 false, i32 0, i32 0, null, i32 256, i1 false, null, null, i32 0, metadata !110, i32 2324} ; [ DW_TAG_subprogram ]
!782 = metadata !{i32 786478, i32 0, metadata !496, metadata !"or_reduce", metadata !"or_reduce", metadata !"_ZN11ap_int_baseILi28ELb0ELb1EE9or_reduceEv", metadata !98, i32 2327, metadata !779, i1 false, i1 false, i32 0, i32 0, null, i32 256, i1 false, null, null, i32 0, metadata !110, i32 2327} ; [ DW_TAG_subprogram ]
!783 = metadata !{i32 786478, i32 0, metadata !496, metadata !"nor_reduce", metadata !"nor_reduce", metadata !"_ZN11ap_int_baseILi28ELb0ELb1EE10nor_reduceEv", metadata !98, i32 2330, metadata !779, i1 false, i1 false, i32 0, i32 0, null, i32 256, i1 false, null, null, i32 0, metadata !110, i32 2330} ; [ DW_TAG_subprogram ]
!784 = metadata !{i32 786478, i32 0, metadata !496, metadata !"xor_reduce", metadata !"xor_reduce", metadata !"_ZN11ap_int_baseILi28ELb0ELb1EE10xor_reduceEv", metadata !98, i32 2333, metadata !779, i1 false, i1 false, i32 0, i32 0, null, i32 256, i1 false, null, null, i32 0, metadata !110, i32 2333} ; [ DW_TAG_subprogram ]
!785 = metadata !{i32 786478, i32 0, metadata !496, metadata !"xnor_reduce", metadata !"xnor_reduce", metadata !"_ZN11ap_int_baseILi28ELb0ELb1EE11xnor_reduceEv", metadata !98, i32 2336, metadata !779, i1 false, i1 false, i32 0, i32 0, null, i32 256, i1 false, null, null, i32 0, metadata !110, i32 2336} ; [ DW_TAG_subprogram ]
!786 = metadata !{i32 786478, i32 0, metadata !496, metadata !"and_reduce", metadata !"and_reduce", metadata !"_ZNK11ap_int_baseILi28ELb0ELb1EE10and_reduceEv", metadata !98, i32 2340, metadata !624, i1 false, i1 false, i32 0, i32 0, null, i32 256, i1 false, null, null, i32 0, metadata !110, i32 2340} ; [ DW_TAG_subprogram ]
!787 = metadata !{i32 786478, i32 0, metadata !496, metadata !"nand_reduce", metadata !"nand_reduce", metadata !"_ZNK11ap_int_baseILi28ELb0ELb1EE11nand_reduceEv", metadata !98, i32 2343, metadata !624, i1 false, i1 false, i32 0, i32 0, null, i32 256, i1 false, null, null, i32 0, metadata !110, i32 2343} ; [ DW_TAG_subprogram ]
!788 = metadata !{i32 786478, i32 0, metadata !496, metadata !"or_reduce", metadata !"or_reduce", metadata !"_ZNK11ap_int_baseILi28ELb0ELb1EE9or_reduceEv", metadata !98, i32 2346, metadata !624, i1 false, i1 false, i32 0, i32 0, null, i32 256, i1 false, null, null, i32 0, metadata !110, i32 2346} ; [ DW_TAG_subprogram ]
!789 = metadata !{i32 786478, i32 0, metadata !496, metadata !"nor_reduce", metadata !"nor_reduce", metadata !"_ZNK11ap_int_baseILi28ELb0ELb1EE10nor_reduceEv", metadata !98, i32 2349, metadata !624, i1 false, i1 false, i32 0, i32 0, null, i32 256, i1 false, null, null, i32 0, metadata !110, i32 2349} ; [ DW_TAG_subprogram ]
!790 = metadata !{i32 786478, i32 0, metadata !496, metadata !"xor_reduce", metadata !"xor_reduce", metadata !"_ZNK11ap_int_baseILi28ELb0ELb1EE10xor_reduceEv", metadata !98, i32 2352, metadata !624, i1 false, i1 false, i32 0, i32 0, null, i32 256, i1 false, null, null, i32 0, metadata !110, i32 2352} ; [ DW_TAG_subprogram ]
!791 = metadata !{i32 786478, i32 0, metadata !496, metadata !"xnor_reduce", metadata !"xnor_reduce", metadata !"_ZNK11ap_int_baseILi28ELb0ELb1EE11xnor_reduceEv", metadata !98, i32 2355, metadata !624, i1 false, i1 false, i32 0, i32 0, null, i32 256, i1 false, null, null, i32 0, metadata !110, i32 2355} ; [ DW_TAG_subprogram ]
!792 = metadata !{i32 786478, i32 0, metadata !496, metadata !"to_string", metadata !"to_string", metadata !"_ZNK11ap_int_baseILi28ELb0ELb1EE9to_stringEPci8BaseModeb", metadata !98, i32 2362, metadata !793, i1 false, i1 false, i32 0, i32 0, null, i32 256, i1 false, null, null, i32 0, metadata !110, i32 2362} ; [ DW_TAG_subprogram ]
!793 = metadata !{i32 786453, i32 0, metadata !"", i32 0, i32 0, i64 0, i64 0, i64 0, i32 0, null, metadata !794, i32 0, i32 0} ; [ DW_TAG_subroutine_type ]
!794 = metadata !{null, metadata !622, metadata !405, metadata !114, metadata !406, metadata !116}
!795 = metadata !{i32 786478, i32 0, metadata !496, metadata !"to_string", metadata !"to_string", metadata !"_ZNK11ap_int_baseILi28ELb0ELb1EE9to_stringE8BaseModeb", metadata !98, i32 2389, metadata !796, i1 false, i1 false, i32 0, i32 0, null, i32 256, i1 false, null, null, i32 0, metadata !110, i32 2389} ; [ DW_TAG_subprogram ]
!796 = metadata !{i32 786453, i32 0, metadata !"", i32 0, i32 0, i64 0, i64 0, i64 0, i32 0, null, metadata !797, i32 0, i32 0} ; [ DW_TAG_subroutine_type ]
!797 = metadata !{metadata !405, metadata !622, metadata !406, metadata !116}
!798 = metadata !{i32 786478, i32 0, metadata !496, metadata !"to_string", metadata !"to_string", metadata !"_ZNK11ap_int_baseILi28ELb0ELb1EE9to_stringEab", metadata !98, i32 2393, metadata !799, i1 false, i1 false, i32 0, i32 0, null, i32 256, i1 false, null, null, i32 0, metadata !110, i32 2393} ; [ DW_TAG_subprogram ]
!799 = metadata !{i32 786453, i32 0, metadata !"", i32 0, i32 0, i64 0, i64 0, i64 0, i32 0, null, metadata !800, i32 0, i32 0} ; [ DW_TAG_subroutine_type ]
!800 = metadata !{metadata !405, metadata !622, metadata !141, metadata !116}
!801 = metadata !{metadata !765, metadata !115, metadata !419}
!802 = metadata !{i32 786478, i32 0, metadata !493, metadata !"ap_uint", metadata !"ap_uint", metadata !"", metadata !94, i32 186, metadata !803, i1 false, i1 false, i32 0, i32 0, null, i32 256, i1 false, null, null, i32 0, metadata !110, i32 186} ; [ DW_TAG_subprogram ]
!803 = metadata !{i32 786453, i32 0, metadata !"", i32 0, i32 0, i64 0, i64 0, i64 0, i32 0, null, metadata !804, i32 0, i32 0} ; [ DW_TAG_subroutine_type ]
!804 = metadata !{null, metadata !805}
!805 = metadata !{i32 786447, i32 0, metadata !"", i32 0, i32 0, i64 64, i64 64, i64 0, i32 64, metadata !493} ; [ DW_TAG_pointer_type ]
!806 = metadata !{i32 786478, i32 0, metadata !493, metadata !"ap_uint", metadata !"ap_uint", metadata !"", metadata !94, i32 248, metadata !807, i1 false, i1 false, i32 0, i32 0, null, i32 256, i1 false, null, null, i32 0, metadata !110, i32 248} ; [ DW_TAG_subprogram ]
!807 = metadata !{i32 786453, i32 0, metadata !"", i32 0, i32 0, i64 0, i64 0, i64 0, i32 0, null, metadata !808, i32 0, i32 0} ; [ DW_TAG_subroutine_type ]
!808 = metadata !{null, metadata !805, metadata !116}
!809 = metadata !{i32 786478, i32 0, metadata !493, metadata !"ap_uint", metadata !"ap_uint", metadata !"", metadata !94, i32 249, metadata !810, i1 false, i1 false, i32 0, i32 0, null, i32 256, i1 false, null, null, i32 0, metadata !110, i32 249} ; [ DW_TAG_subprogram ]
!810 = metadata !{i32 786453, i32 0, metadata !"", i32 0, i32 0, i64 0, i64 0, i64 0, i32 0, null, metadata !811, i32 0, i32 0} ; [ DW_TAG_subroutine_type ]
!811 = metadata !{null, metadata !805, metadata !141}
!812 = metadata !{i32 786478, i32 0, metadata !493, metadata !"ap_uint", metadata !"ap_uint", metadata !"", metadata !94, i32 250, metadata !813, i1 false, i1 false, i32 0, i32 0, null, i32 256, i1 false, null, null, i32 0, metadata !110, i32 250} ; [ DW_TAG_subprogram ]
!813 = metadata !{i32 786453, i32 0, metadata !"", i32 0, i32 0, i64 0, i64 0, i64 0, i32 0, null, metadata !814, i32 0, i32 0} ; [ DW_TAG_subroutine_type ]
!814 = metadata !{null, metadata !805, metadata !145}
!815 = metadata !{i32 786478, i32 0, metadata !493, metadata !"ap_uint", metadata !"ap_uint", metadata !"", metadata !94, i32 251, metadata !816, i1 false, i1 false, i32 0, i32 0, null, i32 256, i1 false, null, null, i32 0, metadata !110, i32 251} ; [ DW_TAG_subprogram ]
!816 = metadata !{i32 786453, i32 0, metadata !"", i32 0, i32 0, i64 0, i64 0, i64 0, i32 0, null, metadata !817, i32 0, i32 0} ; [ DW_TAG_subroutine_type ]
!817 = metadata !{null, metadata !805, metadata !149}
!818 = metadata !{i32 786478, i32 0, metadata !493, metadata !"ap_uint", metadata !"ap_uint", metadata !"", metadata !94, i32 252, metadata !819, i1 false, i1 false, i32 0, i32 0, null, i32 256, i1 false, null, null, i32 0, metadata !110, i32 252} ; [ DW_TAG_subprogram ]
!819 = metadata !{i32 786453, i32 0, metadata !"", i32 0, i32 0, i64 0, i64 0, i64 0, i32 0, null, metadata !820, i32 0, i32 0} ; [ DW_TAG_subroutine_type ]
!820 = metadata !{null, metadata !805, metadata !153}
!821 = metadata !{i32 786478, i32 0, metadata !493, metadata !"ap_uint", metadata !"ap_uint", metadata !"", metadata !94, i32 253, metadata !822, i1 false, i1 false, i32 0, i32 0, null, i32 256, i1 false, null, null, i32 0, metadata !110, i32 253} ; [ DW_TAG_subprogram ]
!822 = metadata !{i32 786453, i32 0, metadata !"", i32 0, i32 0, i64 0, i64 0, i64 0, i32 0, null, metadata !823, i32 0, i32 0} ; [ DW_TAG_subroutine_type ]
!823 = metadata !{null, metadata !805, metadata !114}
!824 = metadata !{i32 786478, i32 0, metadata !493, metadata !"ap_uint", metadata !"ap_uint", metadata !"", metadata !94, i32 254, metadata !825, i1 false, i1 false, i32 0, i32 0, null, i32 256, i1 false, null, null, i32 0, metadata !110, i32 254} ; [ DW_TAG_subprogram ]
!825 = metadata !{i32 786453, i32 0, metadata !"", i32 0, i32 0, i64 0, i64 0, i64 0, i32 0, null, metadata !826, i32 0, i32 0} ; [ DW_TAG_subroutine_type ]
!826 = metadata !{null, metadata !805, metadata !160}
!827 = metadata !{i32 786478, i32 0, metadata !493, metadata !"ap_uint", metadata !"ap_uint", metadata !"", metadata !94, i32 255, metadata !828, i1 false, i1 false, i32 0, i32 0, null, i32 256, i1 false, null, null, i32 0, metadata !110, i32 255} ; [ DW_TAG_subprogram ]
!828 = metadata !{i32 786453, i32 0, metadata !"", i32 0, i32 0, i64 0, i64 0, i64 0, i32 0, null, metadata !829, i32 0, i32 0} ; [ DW_TAG_subroutine_type ]
!829 = metadata !{null, metadata !805, metadata !164}
!830 = metadata !{i32 786478, i32 0, metadata !493, metadata !"ap_uint", metadata !"ap_uint", metadata !"", metadata !94, i32 256, metadata !831, i1 false, i1 false, i32 0, i32 0, null, i32 256, i1 false, null, null, i32 0, metadata !110, i32 256} ; [ DW_TAG_subprogram ]
!831 = metadata !{i32 786453, i32 0, metadata !"", i32 0, i32 0, i64 0, i64 0, i64 0, i32 0, null, metadata !832, i32 0, i32 0} ; [ DW_TAG_subroutine_type ]
!832 = metadata !{null, metadata !805, metadata !168}
!833 = metadata !{i32 786478, i32 0, metadata !493, metadata !"ap_uint", metadata !"ap_uint", metadata !"", metadata !94, i32 257, metadata !834, i1 false, i1 false, i32 0, i32 0, null, i32 256, i1 false, null, null, i32 0, metadata !110, i32 257} ; [ DW_TAG_subprogram ]
!834 = metadata !{i32 786453, i32 0, metadata !"", i32 0, i32 0, i64 0, i64 0, i64 0, i32 0, null, metadata !835, i32 0, i32 0} ; [ DW_TAG_subroutine_type ]
!835 = metadata !{null, metadata !805, metadata !178}
!836 = metadata !{i32 786478, i32 0, metadata !493, metadata !"ap_uint", metadata !"ap_uint", metadata !"", metadata !94, i32 258, metadata !837, i1 false, i1 false, i32 0, i32 0, null, i32 256, i1 false, null, null, i32 0, metadata !110, i32 258} ; [ DW_TAG_subprogram ]
!837 = metadata !{i32 786453, i32 0, metadata !"", i32 0, i32 0, i64 0, i64 0, i64 0, i32 0, null, metadata !838, i32 0, i32 0} ; [ DW_TAG_subroutine_type ]
!838 = metadata !{null, metadata !805, metadata !173}
!839 = metadata !{i32 786478, i32 0, metadata !493, metadata !"ap_uint", metadata !"ap_uint", metadata !"", metadata !94, i32 259, metadata !840, i1 false, i1 false, i32 0, i32 0, null, i32 256, i1 false, null, null, i32 0, metadata !110, i32 259} ; [ DW_TAG_subprogram ]
!840 = metadata !{i32 786453, i32 0, metadata !"", i32 0, i32 0, i64 0, i64 0, i64 0, i32 0, null, metadata !841, i32 0, i32 0} ; [ DW_TAG_subroutine_type ]
!841 = metadata !{null, metadata !805, metadata !182}
!842 = metadata !{i32 786478, i32 0, metadata !493, metadata !"ap_uint", metadata !"ap_uint", metadata !"", metadata !94, i32 260, metadata !843, i1 false, i1 false, i32 0, i32 0, null, i32 256, i1 false, null, null, i32 0, metadata !110, i32 260} ; [ DW_TAG_subprogram ]
!843 = metadata !{i32 786453, i32 0, metadata !"", i32 0, i32 0, i64 0, i64 0, i64 0, i32 0, null, metadata !844, i32 0, i32 0} ; [ DW_TAG_subroutine_type ]
!844 = metadata !{null, metadata !805, metadata !187}
!845 = metadata !{i32 786478, i32 0, metadata !493, metadata !"ap_uint", metadata !"ap_uint", metadata !"", metadata !94, i32 261, metadata !846, i1 false, i1 false, i32 0, i32 0, null, i32 256, i1 false, null, null, i32 0, metadata !110, i32 261} ; [ DW_TAG_subprogram ]
!846 = metadata !{i32 786453, i32 0, metadata !"", i32 0, i32 0, i64 0, i64 0, i64 0, i32 0, null, metadata !847, i32 0, i32 0} ; [ DW_TAG_subroutine_type ]
!847 = metadata !{null, metadata !805, metadata !191}
!848 = metadata !{i32 786478, i32 0, metadata !493, metadata !"ap_uint", metadata !"ap_uint", metadata !"", metadata !94, i32 263, metadata !849, i1 false, i1 false, i32 0, i32 0, null, i32 256, i1 false, null, null, i32 0, metadata !110, i32 263} ; [ DW_TAG_subprogram ]
!849 = metadata !{i32 786453, i32 0, metadata !"", i32 0, i32 0, i64 0, i64 0, i64 0, i32 0, null, metadata !850, i32 0, i32 0} ; [ DW_TAG_subroutine_type ]
!850 = metadata !{null, metadata !805, metadata !195}
!851 = metadata !{i32 786478, i32 0, metadata !493, metadata !"ap_uint", metadata !"ap_uint", metadata !"", metadata !94, i32 264, metadata !852, i1 false, i1 false, i32 0, i32 0, null, i32 256, i1 false, null, null, i32 0, metadata !110, i32 264} ; [ DW_TAG_subprogram ]
!852 = metadata !{i32 786453, i32 0, metadata !"", i32 0, i32 0, i64 0, i64 0, i64 0, i32 0, null, metadata !853, i32 0, i32 0} ; [ DW_TAG_subroutine_type ]
!853 = metadata !{null, metadata !805, metadata !195, metadata !141}
!854 = metadata !{i32 786478, i32 0, metadata !493, metadata !"operator=", metadata !"operator=", metadata !"_ZNV7ap_uintILi28EEaSERKS0_", metadata !94, i32 267, metadata !855, i1 false, i1 false, i32 0, i32 0, null, i32 256, i1 false, null, null, i32 0, metadata !110, i32 267} ; [ DW_TAG_subprogram ]
!855 = metadata !{i32 786453, i32 0, metadata !"", i32 0, i32 0, i64 0, i64 0, i64 0, i32 0, null, metadata !856, i32 0, i32 0} ; [ DW_TAG_subroutine_type ]
!856 = metadata !{null, metadata !857, metadata !859}
!857 = metadata !{i32 786447, i32 0, metadata !"", i32 0, i32 0, i64 64, i64 64, i64 0, i32 64, metadata !858} ; [ DW_TAG_pointer_type ]
!858 = metadata !{i32 786485, null, metadata !"", null, i32 0, i64 0, i64 0, i64 0, i32 0, metadata !493} ; [ DW_TAG_volatile_type ]
!859 = metadata !{i32 786448, null, null, null, i32 0, i64 0, i64 0, i64 0, i32 0, metadata !860} ; [ DW_TAG_reference_type ]
!860 = metadata !{i32 786470, null, metadata !"", null, i32 0, i64 0, i64 0, i64 0, i32 0, metadata !493} ; [ DW_TAG_const_type ]
!861 = metadata !{i32 786478, i32 0, metadata !493, metadata !"operator=", metadata !"operator=", metadata !"_ZNV7ap_uintILi28EEaSERVKS0_", metadata !94, i32 271, metadata !862, i1 false, i1 false, i32 0, i32 0, null, i32 256, i1 false, null, null, i32 0, metadata !110, i32 271} ; [ DW_TAG_subprogram ]
!862 = metadata !{i32 786453, i32 0, metadata !"", i32 0, i32 0, i64 0, i64 0, i64 0, i32 0, null, metadata !863, i32 0, i32 0} ; [ DW_TAG_subroutine_type ]
!863 = metadata !{null, metadata !857, metadata !864}
!864 = metadata !{i32 786448, null, null, null, i32 0, i64 0, i64 0, i64 0, i32 0, metadata !865} ; [ DW_TAG_reference_type ]
!865 = metadata !{i32 786470, null, metadata !"", null, i32 0, i64 0, i64 0, i64 0, i32 0, metadata !858} ; [ DW_TAG_const_type ]
!866 = metadata !{i32 786478, i32 0, metadata !493, metadata !"operator=", metadata !"operator=", metadata !"_ZN7ap_uintILi28EEaSERVKS0_", metadata !94, i32 275, metadata !867, i1 false, i1 false, i32 0, i32 0, null, i32 256, i1 false, null, null, i32 0, metadata !110, i32 275} ; [ DW_TAG_subprogram ]
!867 = metadata !{i32 786453, i32 0, metadata !"", i32 0, i32 0, i64 0, i64 0, i64 0, i32 0, null, metadata !868, i32 0, i32 0} ; [ DW_TAG_subroutine_type ]
!868 = metadata !{metadata !869, metadata !805, metadata !864}
!869 = metadata !{i32 786448, null, null, null, i32 0, i64 0, i64 0, i64 0, i32 0, metadata !493} ; [ DW_TAG_reference_type ]
!870 = metadata !{i32 786478, i32 0, metadata !493, metadata !"operator=", metadata !"operator=", metadata !"_ZN7ap_uintILi28EEaSERKS0_", metadata !94, i32 280, metadata !871, i1 false, i1 false, i32 0, i32 0, null, i32 256, i1 false, null, null, i32 0, metadata !110, i32 280} ; [ DW_TAG_subprogram ]
!871 = metadata !{i32 786453, i32 0, metadata !"", i32 0, i32 0, i64 0, i64 0, i64 0, i32 0, null, metadata !872, i32 0, i32 0} ; [ DW_TAG_subroutine_type ]
!872 = metadata !{metadata !869, metadata !805, metadata !859}
!873 = metadata !{metadata !765}
!874 = metadata !{i32 786448, null, null, null, i32 0, i64 0, i64 0, i64 0, i32 0, metadata !492} ; [ DW_TAG_reference_type ]
!875 = metadata !{i32 786448, null, null, null, i32 0, i64 0, i64 0, i64 0, i32 0, metadata !116} ; [ DW_TAG_reference_type ]
!876 = metadata !{i32 786448, null, null, null, i32 0, i64 0, i64 0, i64 0, i32 0, metadata !92} ; [ DW_TAG_reference_type ]
!877 = metadata !{i32 16, i32 7, metadata !88, null}
!878 = metadata !{i32 790533, metadata !879, metadata !"op2.V", null, i32 280, metadata !881, i32 0, i32 0} ; [ DW_TAG_arg_variable_field_ro ]
!879 = metadata !{i32 786689, metadata !880, metadata !"op2", metadata !94, i32 33554712, metadata !859, i32 0, i32 0} ; [ DW_TAG_arg_variable ]
!880 = metadata !{i32 786478, i32 0, null, metadata !"operator=", metadata !"operator=", metadata !"_ZN7ap_uintILi28EEaSERKS0_", metadata !94, i32 280, metadata !871, i1 false, i1 true, i32 0, i32 0, null, i32 256, i1 false, null, null, metadata !870, metadata !110, i32 280} ; [ DW_TAG_subprogram ]
!881 = metadata !{i32 786447, null, metadata !"", null, i32 0, i64 0, i64 0, i64 0, i32 0, metadata !882} ; [ DW_TAG_pointer_type ]
!882 = metadata !{i32 786438, null, metadata !"ap_uint<28>", metadata !94, i32 183, i64 28, i64 32, i32 0, i32 0, null, metadata !883, i32 0, null, metadata !873} ; [ DW_TAG_class_field_type ]
!883 = metadata !{metadata !884}
!884 = metadata !{i32 786438, null, metadata !"ap_int_base<28, false, true>", metadata !98, i32 1453, i64 28, i64 32, i32 0, i32 0, null, metadata !885, i32 0, null, metadata !801} ; [ DW_TAG_class_field_type ]
!885 = metadata !{metadata !886}
!886 = metadata !{i32 786438, null, metadata !"ssdm_int<28 + 1024 * 0, false>", metadata !102, i32 30, i64 28, i64 32, i32 0, i32 0, null, metadata !887, i32 0, null, metadata !507} ; [ DW_TAG_class_field_type ]
!887 = metadata !{metadata !501}
!888 = metadata !{i32 280, i32 84, metadata !880, metadata !889}
!889 = metadata !{i32 42, i32 3, metadata !890, null}
!890 = metadata !{i32 786443, metadata !891, i32 41, i32 36, metadata !89, i32 4} ; [ DW_TAG_lexical_block ]
!891 = metadata !{i32 786443, metadata !88, i32 17, i32 3, metadata !89, i32 0} ; [ DW_TAG_lexical_block ]
!892 = metadata !{i32 280, i32 84, metadata !880, metadata !893}
!893 = metadata !{i32 32, i32 4, metadata !894, null}
!894 = metadata !{i32 786443, metadata !895, i32 31, i32 105, metadata !89, i32 2} ; [ DW_TAG_lexical_block ]
!895 = metadata !{i32 786443, metadata !891, i32 29, i32 19, metadata !89, i32 1} ; [ DW_TAG_lexical_block ]
!896 = metadata !{i32 790533, metadata !897, metadata !"op2.V", null, i32 280, metadata !899, i32 0, i32 0} ; [ DW_TAG_arg_variable_field_ro ]
!897 = metadata !{i32 786689, metadata !898, metadata !"op2", metadata !94, i32 33554712, metadata !477, i32 0, i32 0} ; [ DW_TAG_arg_variable ]
!898 = metadata !{i32 786478, i32 0, null, metadata !"operator=", metadata !"operator=", metadata !"_ZN7ap_uintILi2EEaSERKS0_", metadata !94, i32 280, metadata !489, i1 false, i1 true, i32 0, i32 0, null, i32 256, i1 false, null, null, metadata !488, metadata !110, i32 280} ; [ DW_TAG_subprogram ]
!899 = metadata !{i32 786447, null, metadata !"", null, i32 0, i64 0, i64 0, i64 0, i32 0, metadata !900} ; [ DW_TAG_pointer_type ]
!900 = metadata !{i32 786438, null, metadata !"ap_uint<2>", metadata !94, i32 183, i64 2, i64 8, i32 0, i32 0, null, metadata !901, i32 0, null, metadata !491} ; [ DW_TAG_class_field_type ]
!901 = metadata !{metadata !902}
!902 = metadata !{i32 786438, null, metadata !"ap_int_base<2, false, true>", metadata !98, i32 1453, i64 2, i64 8, i32 0, i32 0, null, metadata !903, i32 0, null, metadata !418} ; [ DW_TAG_class_field_type ]
!903 = metadata !{metadata !904}
!904 = metadata !{i32 786438, null, metadata !"ssdm_int<2 + 1024 * 0, false>", metadata !102, i32 4, i64 2, i64 8, i32 0, i32 0, null, metadata !905, i32 0, null, metadata !112} ; [ DW_TAG_class_field_type ]
!905 = metadata !{metadata !104}
!906 = metadata !{i32 280, i32 84, metadata !898, metadata !907}
!907 = metadata !{i32 24, i32 2, metadata !891, null}
!908 = metadata !{i32 790531, metadata !909, metadata !"packet2host.V", null, i32 11, metadata !881, i32 0, i32 0} ; [ DW_TAG_arg_variable_field ]
!909 = metadata !{i32 786689, metadata !88, metadata !"packet2host", metadata !89, i32 50331659, metadata !874, i32 0, i32 0} ; [ DW_TAG_arg_variable ]
!910 = metadata !{i32 11, i32 12, metadata !88, null}
!911 = metadata !{i32 786689, metadata !88, metadata !"controller2host_ack", metadata !89, i32 67108876, metadata !875, i32 0, i32 0} ; [ DW_TAG_arg_variable ]
!912 = metadata !{i32 12, i32 8, metadata !88, null}
!913 = metadata !{i32 790531, metadata !914, metadata !"packet2daco.V", null, i32 14, metadata !881, i32 0, i32 0} ; [ DW_TAG_arg_variable_field ]
!914 = metadata !{i32 786689, metadata !88, metadata !"packet2daco", metadata !89, i32 100663310, metadata !874, i32 0, i32 0} ; [ DW_TAG_arg_variable ]
!915 = metadata !{i32 14, i32 12, metadata !88, null}
!916 = metadata !{i32 790531, metadata !917, metadata !"config_out.V", null, i32 15, metadata !899, i32 0, i32 0} ; [ DW_TAG_arg_variable_field ]
!917 = metadata !{i32 786689, metadata !88, metadata !"config_out", metadata !89, i32 117440527, metadata !876, i32 0, i32 0} ; [ DW_TAG_arg_variable ]
!918 = metadata !{i32 15, i32 12, metadata !88, null}
!919 = metadata !{i32 18, i32 1, metadata !891, null}
!920 = metadata !{i32 19, i32 1, metadata !891, null}
!921 = metadata !{i32 20, i32 1, metadata !891, null}
!922 = metadata !{i32 21, i32 1, metadata !891, null}
!923 = metadata !{i32 22, i32 1, metadata !891, null}
!924 = metadata !{i32 790531, metadata !925, metadata !"ssdm_int<2 + 1024 * 0, false>.V", null, i32 280, metadata !927, i32 0, i32 0} ; [ DW_TAG_arg_variable_field ]
!925 = metadata !{i32 786689, metadata !898, metadata !"this", metadata !94, i32 16777496, metadata !926, i32 64, i32 0} ; [ DW_TAG_arg_variable ]
!926 = metadata !{i32 786447, null, metadata !"", null, i32 0, i64 64, i64 64, i64 0, i32 0, metadata !93} ; [ DW_TAG_pointer_type ]
!927 = metadata !{i32 786447, null, metadata !"", null, i32 0, i64 64, i64 64, i64 0, i32 0, metadata !900} ; [ DW_TAG_pointer_type ]
!928 = metadata !{i32 280, i32 50, metadata !898, metadata !907}
!929 = metadata !{i32 281, i32 5, metadata !930, metadata !907}
!930 = metadata !{i32 786443, metadata !898, i32 280, i32 89, metadata !94, i32 19} ; [ DW_TAG_lexical_block ]
!931 = metadata !{i32 2034, i32 5, metadata !932, metadata !1479}
!932 = metadata !{i32 786443, metadata !933, i32 2033, i32 105, metadata !98, i32 18} ; [ DW_TAG_lexical_block ]
!933 = metadata !{i32 786478, i32 0, null, metadata !"operator==<32, true>", metadata !"operator==<32, true>", metadata !"_ZNK11ap_int_baseILi2ELb0ELb1EEeqILi32ELb1EEEbRKS_IXT_EXT0_EXleT_Li64EEE", metadata !98, i32 2033, metadata !934, i1 false, i1 true, i32 0, i32 0, null, i32 256, i1 false, null, metadata !959, null, metadata !110, i32 2033} ; [ DW_TAG_subprogram ]
!934 = metadata !{i32 786453, i32 0, metadata !"", i32 0, i32 0, i64 0, i64 0, i64 0, i32 0, null, metadata !935, i32 0, i32 0} ; [ DW_TAG_subroutine_type ]
!935 = metadata !{metadata !116, metadata !258, metadata !936}
!936 = metadata !{i32 786448, null, null, null, i32 0, i64 0, i64 0, i64 0, i32 0, metadata !937} ; [ DW_TAG_reference_type ]
!937 = metadata !{i32 786470, null, metadata !"", null, i32 0, i64 0, i64 0, i64 0, i32 0, metadata !938} ; [ DW_TAG_const_type ]
!938 = metadata !{i32 786434, null, metadata !"ap_int_base<32, true, true>", metadata !98, i32 1453, i64 32, i64 32, i32 0, i32 0, null, metadata !939, i32 0, null, metadata !1477} ; [ DW_TAG_class_type ]
!939 = metadata !{metadata !940, metadata !952, metadata !956, metadata !962, metadata !968, metadata !971, metadata !974, metadata !977, metadata !980, metadata !983, metadata !986, metadata !989, metadata !992, metadata !995, metadata !998, metadata !1001, metadata !1004, metadata !1007, metadata !1010, metadata !1013, metadata !1016, metadata !1020, metadata !1023, metadata !1026, metadata !1027, metadata !1031, metadata !1034, metadata !1037, metadata !1040, metadata !1043, metadata !1046, metadata !1049, metadata !1052, metadata !1055, metadata !1058, metadata !1061, metadata !1064, metadata !1072, metadata !1075, metadata !1078, metadata !1081, metadata !1084, metadata !1087, metadata !1090, metadata !1093, metadata !1096, metadata !1099, metadata !1102, metadata !1105, metadata !1108, metadata !1109, metadata !1113, metadata !1116, metadata !1117, metadata !1118, metadata !1119, metadata !1120, metadata !1121, metadata !1124, metadata !1125, metadata !1128, metadata !1129, metadata !1130, metadata !1131, metadata !1132, metadata !1133, metadata !1136, metadata !1137, metadata !1138, metadata !1141, metadata !1142, metadata !1145, metadata !1146, metadata !1437, metadata !1441, metadata !1442, metadata !1445, metadata !1446, metadata !1450, metadata !1451, metadata !1452, metadata !1453, metadata !1456, metadata !1457, metadata !1458, metadata !1459, metadata !1460, metadata !1461, metadata !1462, metadata !1463, metadata !1464, metadata !1465, metadata !1466, metadata !1467, metadata !1470, metadata !1473, metadata !1476}
!940 = metadata !{i32 786460, metadata !938, null, metadata !98, i32 0, i64 0, i64 0, i64 0, i32 0, metadata !941} ; [ DW_TAG_inheritance ]
!941 = metadata !{i32 786434, null, metadata !"ssdm_int<32 + 1024 * 0, true>", metadata !102, i32 34, i64 32, i64 32, i32 0, i32 0, null, metadata !942, i32 0, null, metadata !949} ; [ DW_TAG_class_type ]
!942 = metadata !{metadata !943, metadata !945}
!943 = metadata !{i32 786445, metadata !941, metadata !"V", metadata !102, i32 34, i64 32, i64 32, i64 0, i32 0, metadata !944} ; [ DW_TAG_member ]
!944 = metadata !{i32 786468, null, metadata !"int32", null, i32 0, i64 32, i64 32, i64 0, i32 0, i32 5} ; [ DW_TAG_base_type ]
!945 = metadata !{i32 786478, i32 0, metadata !941, metadata !"ssdm_int", metadata !"ssdm_int", metadata !"", metadata !102, i32 34, metadata !946, i1 false, i1 false, i32 0, i32 0, null, i32 256, i1 false, null, null, i32 0, metadata !110, i32 34} ; [ DW_TAG_subprogram ]
!946 = metadata !{i32 786453, i32 0, metadata !"", i32 0, i32 0, i64 0, i64 0, i64 0, i32 0, null, metadata !947, i32 0, i32 0} ; [ DW_TAG_subroutine_type ]
!947 = metadata !{null, metadata !948}
!948 = metadata !{i32 786447, i32 0, metadata !"", i32 0, i32 0, i64 64, i64 64, i64 0, i32 64, metadata !941} ; [ DW_TAG_pointer_type ]
!949 = metadata !{metadata !950, metadata !951}
!950 = metadata !{i32 786480, null, metadata !"_AP_N", metadata !114, i64 32, null, i32 0, i32 0} ; [ DW_TAG_template_value_parameter ]
!951 = metadata !{i32 786480, null, metadata !"_AP_S", metadata !116, i64 1, null, i32 0, i32 0} ; [ DW_TAG_template_value_parameter ]
!952 = metadata !{i32 786478, i32 0, metadata !938, metadata !"ap_int_base", metadata !"ap_int_base", metadata !"", metadata !98, i32 1494, metadata !953, i1 false, i1 false, i32 0, i32 0, null, i32 256, i1 false, null, null, i32 0, metadata !110, i32 1494} ; [ DW_TAG_subprogram ]
!953 = metadata !{i32 786453, i32 0, metadata !"", i32 0, i32 0, i64 0, i64 0, i64 0, i32 0, null, metadata !954, i32 0, i32 0} ; [ DW_TAG_subroutine_type ]
!954 = metadata !{null, metadata !955}
!955 = metadata !{i32 786447, i32 0, metadata !"", i32 0, i32 0, i64 64, i64 64, i64 0, i32 64, metadata !938} ; [ DW_TAG_pointer_type ]
!956 = metadata !{i32 786478, i32 0, metadata !938, metadata !"ap_int_base<32, true>", metadata !"ap_int_base<32, true>", metadata !"", metadata !98, i32 1506, metadata !957, i1 false, i1 false, i32 0, i32 0, null, i32 256, i1 false, null, metadata !959, i32 0, metadata !110, i32 1506} ; [ DW_TAG_subprogram ]
!957 = metadata !{i32 786453, i32 0, metadata !"", i32 0, i32 0, i64 0, i64 0, i64 0, i32 0, null, metadata !958, i32 0, i32 0} ; [ DW_TAG_subroutine_type ]
!958 = metadata !{null, metadata !955, metadata !936}
!959 = metadata !{metadata !960, metadata !961}
!960 = metadata !{i32 786480, null, metadata !"_AP_W2", metadata !114, i64 32, null, i32 0, i32 0} ; [ DW_TAG_template_value_parameter ]
!961 = metadata !{i32 786480, null, metadata !"_AP_S2", metadata !116, i64 1, null, i32 0, i32 0} ; [ DW_TAG_template_value_parameter ]
!962 = metadata !{i32 786478, i32 0, metadata !938, metadata !"ap_int_base<32, true>", metadata !"ap_int_base<32, true>", metadata !"", metadata !98, i32 1509, metadata !963, i1 false, i1 false, i32 0, i32 0, null, i32 256, i1 false, null, metadata !959, i32 0, metadata !110, i32 1509} ; [ DW_TAG_subprogram ]
!963 = metadata !{i32 786453, i32 0, metadata !"", i32 0, i32 0, i64 0, i64 0, i64 0, i32 0, null, metadata !964, i32 0, i32 0} ; [ DW_TAG_subroutine_type ]
!964 = metadata !{null, metadata !955, metadata !965}
!965 = metadata !{i32 786448, null, null, null, i32 0, i64 0, i64 0, i64 0, i32 0, metadata !966} ; [ DW_TAG_reference_type ]
!966 = metadata !{i32 786470, null, metadata !"", null, i32 0, i64 0, i64 0, i64 0, i32 0, metadata !967} ; [ DW_TAG_const_type ]
!967 = metadata !{i32 786485, null, metadata !"", null, i32 0, i64 0, i64 0, i64 0, i32 0, metadata !938} ; [ DW_TAG_volatile_type ]
!968 = metadata !{i32 786478, i32 0, metadata !938, metadata !"ap_int_base", metadata !"ap_int_base", metadata !"", metadata !98, i32 1516, metadata !969, i1 false, i1 false, i32 0, i32 0, null, i32 384, i1 false, null, null, i32 0, metadata !110, i32 1516} ; [ DW_TAG_subprogram ]
!969 = metadata !{i32 786453, i32 0, metadata !"", i32 0, i32 0, i64 0, i64 0, i64 0, i32 0, null, metadata !970, i32 0, i32 0} ; [ DW_TAG_subroutine_type ]
!970 = metadata !{null, metadata !955, metadata !116}
!971 = metadata !{i32 786478, i32 0, metadata !938, metadata !"ap_int_base", metadata !"ap_int_base", metadata !"", metadata !98, i32 1517, metadata !972, i1 false, i1 false, i32 0, i32 0, null, i32 384, i1 false, null, null, i32 0, metadata !110, i32 1517} ; [ DW_TAG_subprogram ]
!972 = metadata !{i32 786453, i32 0, metadata !"", i32 0, i32 0, i64 0, i64 0, i64 0, i32 0, null, metadata !973, i32 0, i32 0} ; [ DW_TAG_subroutine_type ]
!973 = metadata !{null, metadata !955, metadata !141}
!974 = metadata !{i32 786478, i32 0, metadata !938, metadata !"ap_int_base", metadata !"ap_int_base", metadata !"", metadata !98, i32 1518, metadata !975, i1 false, i1 false, i32 0, i32 0, null, i32 384, i1 false, null, null, i32 0, metadata !110, i32 1518} ; [ DW_TAG_subprogram ]
!975 = metadata !{i32 786453, i32 0, metadata !"", i32 0, i32 0, i64 0, i64 0, i64 0, i32 0, null, metadata !976, i32 0, i32 0} ; [ DW_TAG_subroutine_type ]
!976 = metadata !{null, metadata !955, metadata !145}
!977 = metadata !{i32 786478, i32 0, metadata !938, metadata !"ap_int_base", metadata !"ap_int_base", metadata !"", metadata !98, i32 1519, metadata !978, i1 false, i1 false, i32 0, i32 0, null, i32 384, i1 false, null, null, i32 0, metadata !110, i32 1519} ; [ DW_TAG_subprogram ]
!978 = metadata !{i32 786453, i32 0, metadata !"", i32 0, i32 0, i64 0, i64 0, i64 0, i32 0, null, metadata !979, i32 0, i32 0} ; [ DW_TAG_subroutine_type ]
!979 = metadata !{null, metadata !955, metadata !149}
!980 = metadata !{i32 786478, i32 0, metadata !938, metadata !"ap_int_base", metadata !"ap_int_base", metadata !"", metadata !98, i32 1520, metadata !981, i1 false, i1 false, i32 0, i32 0, null, i32 384, i1 false, null, null, i32 0, metadata !110, i32 1520} ; [ DW_TAG_subprogram ]
!981 = metadata !{i32 786453, i32 0, metadata !"", i32 0, i32 0, i64 0, i64 0, i64 0, i32 0, null, metadata !982, i32 0, i32 0} ; [ DW_TAG_subroutine_type ]
!982 = metadata !{null, metadata !955, metadata !153}
!983 = metadata !{i32 786478, i32 0, metadata !938, metadata !"ap_int_base", metadata !"ap_int_base", metadata !"", metadata !98, i32 1521, metadata !984, i1 false, i1 false, i32 0, i32 0, null, i32 384, i1 false, null, null, i32 0, metadata !110, i32 1521} ; [ DW_TAG_subprogram ]
!984 = metadata !{i32 786453, i32 0, metadata !"", i32 0, i32 0, i64 0, i64 0, i64 0, i32 0, null, metadata !985, i32 0, i32 0} ; [ DW_TAG_subroutine_type ]
!985 = metadata !{null, metadata !955, metadata !114}
!986 = metadata !{i32 786478, i32 0, metadata !938, metadata !"ap_int_base", metadata !"ap_int_base", metadata !"", metadata !98, i32 1522, metadata !987, i1 false, i1 false, i32 0, i32 0, null, i32 384, i1 false, null, null, i32 0, metadata !110, i32 1522} ; [ DW_TAG_subprogram ]
!987 = metadata !{i32 786453, i32 0, metadata !"", i32 0, i32 0, i64 0, i64 0, i64 0, i32 0, null, metadata !988, i32 0, i32 0} ; [ DW_TAG_subroutine_type ]
!988 = metadata !{null, metadata !955, metadata !160}
!989 = metadata !{i32 786478, i32 0, metadata !938, metadata !"ap_int_base", metadata !"ap_int_base", metadata !"", metadata !98, i32 1523, metadata !990, i1 false, i1 false, i32 0, i32 0, null, i32 384, i1 false, null, null, i32 0, metadata !110, i32 1523} ; [ DW_TAG_subprogram ]
!990 = metadata !{i32 786453, i32 0, metadata !"", i32 0, i32 0, i64 0, i64 0, i64 0, i32 0, null, metadata !991, i32 0, i32 0} ; [ DW_TAG_subroutine_type ]
!991 = metadata !{null, metadata !955, metadata !164}
!992 = metadata !{i32 786478, i32 0, metadata !938, metadata !"ap_int_base", metadata !"ap_int_base", metadata !"", metadata !98, i32 1524, metadata !993, i1 false, i1 false, i32 0, i32 0, null, i32 384, i1 false, null, null, i32 0, metadata !110, i32 1524} ; [ DW_TAG_subprogram ]
!993 = metadata !{i32 786453, i32 0, metadata !"", i32 0, i32 0, i64 0, i64 0, i64 0, i32 0, null, metadata !994, i32 0, i32 0} ; [ DW_TAG_subroutine_type ]
!994 = metadata !{null, metadata !955, metadata !168}
!995 = metadata !{i32 786478, i32 0, metadata !938, metadata !"ap_int_base", metadata !"ap_int_base", metadata !"", metadata !98, i32 1525, metadata !996, i1 false, i1 false, i32 0, i32 0, null, i32 384, i1 false, null, null, i32 0, metadata !110, i32 1525} ; [ DW_TAG_subprogram ]
!996 = metadata !{i32 786453, i32 0, metadata !"", i32 0, i32 0, i64 0, i64 0, i64 0, i32 0, null, metadata !997, i32 0, i32 0} ; [ DW_TAG_subroutine_type ]
!997 = metadata !{null, metadata !955, metadata !172}
!998 = metadata !{i32 786478, i32 0, metadata !938, metadata !"ap_int_base", metadata !"ap_int_base", metadata !"", metadata !98, i32 1526, metadata !999, i1 false, i1 false, i32 0, i32 0, null, i32 384, i1 false, null, null, i32 0, metadata !110, i32 1526} ; [ DW_TAG_subprogram ]
!999 = metadata !{i32 786453, i32 0, metadata !"", i32 0, i32 0, i64 0, i64 0, i64 0, i32 0, null, metadata !1000, i32 0, i32 0} ; [ DW_TAG_subroutine_type ]
!1000 = metadata !{null, metadata !955, metadata !177}
!1001 = metadata !{i32 786478, i32 0, metadata !938, metadata !"ap_int_base", metadata !"ap_int_base", metadata !"", metadata !98, i32 1527, metadata !1002, i1 false, i1 false, i32 0, i32 0, null, i32 384, i1 false, null, null, i32 0, metadata !110, i32 1527} ; [ DW_TAG_subprogram ]
!1002 = metadata !{i32 786453, i32 0, metadata !"", i32 0, i32 0, i64 0, i64 0, i64 0, i32 0, null, metadata !1003, i32 0, i32 0} ; [ DW_TAG_subroutine_type ]
!1003 = metadata !{null, metadata !955, metadata !182}
!1004 = metadata !{i32 786478, i32 0, metadata !938, metadata !"ap_int_base", metadata !"ap_int_base", metadata !"", metadata !98, i32 1528, metadata !1005, i1 false, i1 false, i32 0, i32 0, null, i32 384, i1 false, null, null, i32 0, metadata !110, i32 1528} ; [ DW_TAG_subprogram ]
!1005 = metadata !{i32 786453, i32 0, metadata !"", i32 0, i32 0, i64 0, i64 0, i64 0, i32 0, null, metadata !1006, i32 0, i32 0} ; [ DW_TAG_subroutine_type ]
!1006 = metadata !{null, metadata !955, metadata !187}
!1007 = metadata !{i32 786478, i32 0, metadata !938, metadata !"ap_int_base", metadata !"ap_int_base", metadata !"", metadata !98, i32 1529, metadata !1008, i1 false, i1 false, i32 0, i32 0, null, i32 384, i1 false, null, null, i32 0, metadata !110, i32 1529} ; [ DW_TAG_subprogram ]
!1008 = metadata !{i32 786453, i32 0, metadata !"", i32 0, i32 0, i64 0, i64 0, i64 0, i32 0, null, metadata !1009, i32 0, i32 0} ; [ DW_TAG_subroutine_type ]
!1009 = metadata !{null, metadata !955, metadata !191}
!1010 = metadata !{i32 786478, i32 0, metadata !938, metadata !"ap_int_base", metadata !"ap_int_base", metadata !"", metadata !98, i32 1556, metadata !1011, i1 false, i1 false, i32 0, i32 0, null, i32 256, i1 false, null, null, i32 0, metadata !110, i32 1556} ; [ DW_TAG_subprogram ]
!1011 = metadata !{i32 786453, i32 0, metadata !"", i32 0, i32 0, i64 0, i64 0, i64 0, i32 0, null, metadata !1012, i32 0, i32 0} ; [ DW_TAG_subroutine_type ]
!1012 = metadata !{null, metadata !955, metadata !195}
!1013 = metadata !{i32 786478, i32 0, metadata !938, metadata !"ap_int_base", metadata !"ap_int_base", metadata !"", metadata !98, i32 1563, metadata !1014, i1 false, i1 false, i32 0, i32 0, null, i32 256, i1 false, null, null, i32 0, metadata !110, i32 1563} ; [ DW_TAG_subprogram ]
!1014 = metadata !{i32 786453, i32 0, metadata !"", i32 0, i32 0, i64 0, i64 0, i64 0, i32 0, null, metadata !1015, i32 0, i32 0} ; [ DW_TAG_subroutine_type ]
!1015 = metadata !{null, metadata !955, metadata !195, metadata !141}
!1016 = metadata !{i32 786478, i32 0, metadata !938, metadata !"read", metadata !"read", metadata !"_ZNV11ap_int_baseILi32ELb1ELb1EE4readEv", metadata !98, i32 1584, metadata !1017, i1 false, i1 false, i32 0, i32 0, null, i32 256, i1 false, null, null, i32 0, metadata !110, i32 1584} ; [ DW_TAG_subprogram ]
!1017 = metadata !{i32 786453, i32 0, metadata !"", i32 0, i32 0, i64 0, i64 0, i64 0, i32 0, null, metadata !1018, i32 0, i32 0} ; [ DW_TAG_subroutine_type ]
!1018 = metadata !{metadata !938, metadata !1019}
!1019 = metadata !{i32 786447, i32 0, metadata !"", i32 0, i32 0, i64 64, i64 64, i64 0, i32 64, metadata !967} ; [ DW_TAG_pointer_type ]
!1020 = metadata !{i32 786478, i32 0, metadata !938, metadata !"write", metadata !"write", metadata !"_ZNV11ap_int_baseILi32ELb1ELb1EE5writeERKS0_", metadata !98, i32 1590, metadata !1021, i1 false, i1 false, i32 0, i32 0, null, i32 256, i1 false, null, null, i32 0, metadata !110, i32 1590} ; [ DW_TAG_subprogram ]
!1021 = metadata !{i32 786453, i32 0, metadata !"", i32 0, i32 0, i64 0, i64 0, i64 0, i32 0, null, metadata !1022, i32 0, i32 0} ; [ DW_TAG_subroutine_type ]
!1022 = metadata !{null, metadata !1019, metadata !936}
!1023 = metadata !{i32 786478, i32 0, metadata !938, metadata !"operator=", metadata !"operator=", metadata !"_ZNV11ap_int_baseILi32ELb1ELb1EEaSERVKS0_", metadata !98, i32 1602, metadata !1024, i1 false, i1 false, i32 0, i32 0, null, i32 256, i1 false, null, null, i32 0, metadata !110, i32 1602} ; [ DW_TAG_subprogram ]
!1024 = metadata !{i32 786453, i32 0, metadata !"", i32 0, i32 0, i64 0, i64 0, i64 0, i32 0, null, metadata !1025, i32 0, i32 0} ; [ DW_TAG_subroutine_type ]
!1025 = metadata !{null, metadata !1019, metadata !965}
!1026 = metadata !{i32 786478, i32 0, metadata !938, metadata !"operator=", metadata !"operator=", metadata !"_ZNV11ap_int_baseILi32ELb1ELb1EEaSERKS0_", metadata !98, i32 1611, metadata !1021, i1 false, i1 false, i32 0, i32 0, null, i32 256, i1 false, null, null, i32 0, metadata !110, i32 1611} ; [ DW_TAG_subprogram ]
!1027 = metadata !{i32 786478, i32 0, metadata !938, metadata !"operator=", metadata !"operator=", metadata !"_ZN11ap_int_baseILi32ELb1ELb1EEaSERVKS0_", metadata !98, i32 1634, metadata !1028, i1 false, i1 false, i32 0, i32 0, null, i32 256, i1 false, null, null, i32 0, metadata !110, i32 1634} ; [ DW_TAG_subprogram ]
!1028 = metadata !{i32 786453, i32 0, metadata !"", i32 0, i32 0, i64 0, i64 0, i64 0, i32 0, null, metadata !1029, i32 0, i32 0} ; [ DW_TAG_subroutine_type ]
!1029 = metadata !{metadata !1030, metadata !955, metadata !965}
!1030 = metadata !{i32 786448, null, null, null, i32 0, i64 0, i64 0, i64 0, i32 0, metadata !938} ; [ DW_TAG_reference_type ]
!1031 = metadata !{i32 786478, i32 0, metadata !938, metadata !"operator=", metadata !"operator=", metadata !"_ZN11ap_int_baseILi32ELb1ELb1EEaSERKS0_", metadata !98, i32 1639, metadata !1032, i1 false, i1 false, i32 0, i32 0, null, i32 256, i1 false, null, null, i32 0, metadata !110, i32 1639} ; [ DW_TAG_subprogram ]
!1032 = metadata !{i32 786453, i32 0, metadata !"", i32 0, i32 0, i64 0, i64 0, i64 0, i32 0, null, metadata !1033, i32 0, i32 0} ; [ DW_TAG_subroutine_type ]
!1033 = metadata !{metadata !1030, metadata !955, metadata !936}
!1034 = metadata !{i32 786478, i32 0, metadata !938, metadata !"operator=", metadata !"operator=", metadata !"_ZN11ap_int_baseILi32ELb1ELb1EEaSEPKc", metadata !98, i32 1643, metadata !1035, i1 false, i1 false, i32 0, i32 0, null, i32 256, i1 false, null, null, i32 0, metadata !110, i32 1643} ; [ DW_TAG_subprogram ]
!1035 = metadata !{i32 786453, i32 0, metadata !"", i32 0, i32 0, i64 0, i64 0, i64 0, i32 0, null, metadata !1036, i32 0, i32 0} ; [ DW_TAG_subroutine_type ]
!1036 = metadata !{metadata !1030, metadata !955, metadata !195}
!1037 = metadata !{i32 786478, i32 0, metadata !938, metadata !"set", metadata !"set", metadata !"_ZN11ap_int_baseILi32ELb1ELb1EE3setEPKca", metadata !98, i32 1651, metadata !1038, i1 false, i1 false, i32 0, i32 0, null, i32 256, i1 false, null, null, i32 0, metadata !110, i32 1651} ; [ DW_TAG_subprogram ]
!1038 = metadata !{i32 786453, i32 0, metadata !"", i32 0, i32 0, i64 0, i64 0, i64 0, i32 0, null, metadata !1039, i32 0, i32 0} ; [ DW_TAG_subroutine_type ]
!1039 = metadata !{metadata !1030, metadata !955, metadata !195, metadata !141}
!1040 = metadata !{i32 786478, i32 0, metadata !938, metadata !"operator=", metadata !"operator=", metadata !"_ZN11ap_int_baseILi32ELb1ELb1EEaSEa", metadata !98, i32 1665, metadata !1041, i1 false, i1 false, i32 0, i32 0, null, i32 256, i1 false, null, null, i32 0, metadata !110, i32 1665} ; [ DW_TAG_subprogram ]
!1041 = metadata !{i32 786453, i32 0, metadata !"", i32 0, i32 0, i64 0, i64 0, i64 0, i32 0, null, metadata !1042, i32 0, i32 0} ; [ DW_TAG_subroutine_type ]
!1042 = metadata !{metadata !1030, metadata !955, metadata !141}
!1043 = metadata !{i32 786478, i32 0, metadata !938, metadata !"operator=", metadata !"operator=", metadata !"_ZN11ap_int_baseILi32ELb1ELb1EEaSEh", metadata !98, i32 1666, metadata !1044, i1 false, i1 false, i32 0, i32 0, null, i32 256, i1 false, null, null, i32 0, metadata !110, i32 1666} ; [ DW_TAG_subprogram ]
!1044 = metadata !{i32 786453, i32 0, metadata !"", i32 0, i32 0, i64 0, i64 0, i64 0, i32 0, null, metadata !1045, i32 0, i32 0} ; [ DW_TAG_subroutine_type ]
!1045 = metadata !{metadata !1030, metadata !955, metadata !145}
!1046 = metadata !{i32 786478, i32 0, metadata !938, metadata !"operator=", metadata !"operator=", metadata !"_ZN11ap_int_baseILi32ELb1ELb1EEaSEs", metadata !98, i32 1667, metadata !1047, i1 false, i1 false, i32 0, i32 0, null, i32 256, i1 false, null, null, i32 0, metadata !110, i32 1667} ; [ DW_TAG_subprogram ]
!1047 = metadata !{i32 786453, i32 0, metadata !"", i32 0, i32 0, i64 0, i64 0, i64 0, i32 0, null, metadata !1048, i32 0, i32 0} ; [ DW_TAG_subroutine_type ]
!1048 = metadata !{metadata !1030, metadata !955, metadata !149}
!1049 = metadata !{i32 786478, i32 0, metadata !938, metadata !"operator=", metadata !"operator=", metadata !"_ZN11ap_int_baseILi32ELb1ELb1EEaSEt", metadata !98, i32 1668, metadata !1050, i1 false, i1 false, i32 0, i32 0, null, i32 256, i1 false, null, null, i32 0, metadata !110, i32 1668} ; [ DW_TAG_subprogram ]
!1050 = metadata !{i32 786453, i32 0, metadata !"", i32 0, i32 0, i64 0, i64 0, i64 0, i32 0, null, metadata !1051, i32 0, i32 0} ; [ DW_TAG_subroutine_type ]
!1051 = metadata !{metadata !1030, metadata !955, metadata !153}
!1052 = metadata !{i32 786478, i32 0, metadata !938, metadata !"operator=", metadata !"operator=", metadata !"_ZN11ap_int_baseILi32ELb1ELb1EEaSEi", metadata !98, i32 1669, metadata !1053, i1 false, i1 false, i32 0, i32 0, null, i32 256, i1 false, null, null, i32 0, metadata !110, i32 1669} ; [ DW_TAG_subprogram ]
!1053 = metadata !{i32 786453, i32 0, metadata !"", i32 0, i32 0, i64 0, i64 0, i64 0, i32 0, null, metadata !1054, i32 0, i32 0} ; [ DW_TAG_subroutine_type ]
!1054 = metadata !{metadata !1030, metadata !955, metadata !114}
!1055 = metadata !{i32 786478, i32 0, metadata !938, metadata !"operator=", metadata !"operator=", metadata !"_ZN11ap_int_baseILi32ELb1ELb1EEaSEj", metadata !98, i32 1670, metadata !1056, i1 false, i1 false, i32 0, i32 0, null, i32 256, i1 false, null, null, i32 0, metadata !110, i32 1670} ; [ DW_TAG_subprogram ]
!1056 = metadata !{i32 786453, i32 0, metadata !"", i32 0, i32 0, i64 0, i64 0, i64 0, i32 0, null, metadata !1057, i32 0, i32 0} ; [ DW_TAG_subroutine_type ]
!1057 = metadata !{metadata !1030, metadata !955, metadata !160}
!1058 = metadata !{i32 786478, i32 0, metadata !938, metadata !"operator=", metadata !"operator=", metadata !"_ZN11ap_int_baseILi32ELb1ELb1EEaSEx", metadata !98, i32 1671, metadata !1059, i1 false, i1 false, i32 0, i32 0, null, i32 256, i1 false, null, null, i32 0, metadata !110, i32 1671} ; [ DW_TAG_subprogram ]
!1059 = metadata !{i32 786453, i32 0, metadata !"", i32 0, i32 0, i64 0, i64 0, i64 0, i32 0, null, metadata !1060, i32 0, i32 0} ; [ DW_TAG_subroutine_type ]
!1060 = metadata !{metadata !1030, metadata !955, metadata !172}
!1061 = metadata !{i32 786478, i32 0, metadata !938, metadata !"operator=", metadata !"operator=", metadata !"_ZN11ap_int_baseILi32ELb1ELb1EEaSEy", metadata !98, i32 1672, metadata !1062, i1 false, i1 false, i32 0, i32 0, null, i32 256, i1 false, null, null, i32 0, metadata !110, i32 1672} ; [ DW_TAG_subprogram ]
!1062 = metadata !{i32 786453, i32 0, metadata !"", i32 0, i32 0, i64 0, i64 0, i64 0, i32 0, null, metadata !1063, i32 0, i32 0} ; [ DW_TAG_subroutine_type ]
!1063 = metadata !{metadata !1030, metadata !955, metadata !177}
!1064 = metadata !{i32 786478, i32 0, metadata !938, metadata !"operator int", metadata !"operator int", metadata !"_ZNK11ap_int_baseILi32ELb1ELb1EEcviEv", metadata !98, i32 1710, metadata !1065, i1 false, i1 false, i32 0, i32 0, null, i32 256, i1 false, null, null, i32 0, metadata !110, i32 1710} ; [ DW_TAG_subprogram ]
!1065 = metadata !{i32 786453, i32 0, metadata !"", i32 0, i32 0, i64 0, i64 0, i64 0, i32 0, null, metadata !1066, i32 0, i32 0} ; [ DW_TAG_subroutine_type ]
!1066 = metadata !{metadata !1067, metadata !1071}
!1067 = metadata !{i32 786454, metadata !938, metadata !"RetType", metadata !98, i32 1458, i64 0, i64 0, i64 0, i32 0, metadata !1068} ; [ DW_TAG_typedef ]
!1068 = metadata !{i32 786454, metadata !1069, metadata !"Type", metadata !98, i32 1441, i64 0, i64 0, i64 0, i32 0, metadata !114} ; [ DW_TAG_typedef ]
!1069 = metadata !{i32 786434, null, metadata !"retval<4, true>", metadata !98, i32 1440, i64 8, i64 8, i32 0, i32 0, null, metadata !255, i32 0, null, metadata !1070} ; [ DW_TAG_class_type ]
!1070 = metadata !{metadata !621, metadata !951}
!1071 = metadata !{i32 786447, i32 0, metadata !"", i32 0, i32 0, i64 64, i64 64, i64 0, i32 64, metadata !937} ; [ DW_TAG_pointer_type ]
!1072 = metadata !{i32 786478, i32 0, metadata !938, metadata !"to_bool", metadata !"to_bool", metadata !"_ZNK11ap_int_baseILi32ELb1ELb1EE7to_boolEv", metadata !98, i32 1716, metadata !1073, i1 false, i1 false, i32 0, i32 0, null, i32 256, i1 false, null, null, i32 0, metadata !110, i32 1716} ; [ DW_TAG_subprogram ]
!1073 = metadata !{i32 786453, i32 0, metadata !"", i32 0, i32 0, i64 0, i64 0, i64 0, i32 0, null, metadata !1074, i32 0, i32 0} ; [ DW_TAG_subroutine_type ]
!1074 = metadata !{metadata !116, metadata !1071}
!1075 = metadata !{i32 786478, i32 0, metadata !938, metadata !"to_uchar", metadata !"to_uchar", metadata !"_ZNK11ap_int_baseILi32ELb1ELb1EE8to_ucharEv", metadata !98, i32 1717, metadata !1076, i1 false, i1 false, i32 0, i32 0, null, i32 256, i1 false, null, null, i32 0, metadata !110, i32 1717} ; [ DW_TAG_subprogram ]
!1076 = metadata !{i32 786453, i32 0, metadata !"", i32 0, i32 0, i64 0, i64 0, i64 0, i32 0, null, metadata !1077, i32 0, i32 0} ; [ DW_TAG_subroutine_type ]
!1077 = metadata !{metadata !145, metadata !1071}
!1078 = metadata !{i32 786478, i32 0, metadata !938, metadata !"to_char", metadata !"to_char", metadata !"_ZNK11ap_int_baseILi32ELb1ELb1EE7to_charEv", metadata !98, i32 1718, metadata !1079, i1 false, i1 false, i32 0, i32 0, null, i32 256, i1 false, null, null, i32 0, metadata !110, i32 1718} ; [ DW_TAG_subprogram ]
!1079 = metadata !{i32 786453, i32 0, metadata !"", i32 0, i32 0, i64 0, i64 0, i64 0, i32 0, null, metadata !1080, i32 0, i32 0} ; [ DW_TAG_subroutine_type ]
!1080 = metadata !{metadata !141, metadata !1071}
!1081 = metadata !{i32 786478, i32 0, metadata !938, metadata !"to_ushort", metadata !"to_ushort", metadata !"_ZNK11ap_int_baseILi32ELb1ELb1EE9to_ushortEv", metadata !98, i32 1719, metadata !1082, i1 false, i1 false, i32 0, i32 0, null, i32 256, i1 false, null, null, i32 0, metadata !110, i32 1719} ; [ DW_TAG_subprogram ]
!1082 = metadata !{i32 786453, i32 0, metadata !"", i32 0, i32 0, i64 0, i64 0, i64 0, i32 0, null, metadata !1083, i32 0, i32 0} ; [ DW_TAG_subroutine_type ]
!1083 = metadata !{metadata !153, metadata !1071}
!1084 = metadata !{i32 786478, i32 0, metadata !938, metadata !"to_short", metadata !"to_short", metadata !"_ZNK11ap_int_baseILi32ELb1ELb1EE8to_shortEv", metadata !98, i32 1720, metadata !1085, i1 false, i1 false, i32 0, i32 0, null, i32 256, i1 false, null, null, i32 0, metadata !110, i32 1720} ; [ DW_TAG_subprogram ]
!1085 = metadata !{i32 786453, i32 0, metadata !"", i32 0, i32 0, i64 0, i64 0, i64 0, i32 0, null, metadata !1086, i32 0, i32 0} ; [ DW_TAG_subroutine_type ]
!1086 = metadata !{metadata !149, metadata !1071}
!1087 = metadata !{i32 786478, i32 0, metadata !938, metadata !"to_int", metadata !"to_int", metadata !"_ZNK11ap_int_baseILi32ELb1ELb1EE6to_intEv", metadata !98, i32 1721, metadata !1088, i1 false, i1 false, i32 0, i32 0, null, i32 256, i1 false, null, null, i32 0, metadata !110, i32 1721} ; [ DW_TAG_subprogram ]
!1088 = metadata !{i32 786453, i32 0, metadata !"", i32 0, i32 0, i64 0, i64 0, i64 0, i32 0, null, metadata !1089, i32 0, i32 0} ; [ DW_TAG_subroutine_type ]
!1089 = metadata !{metadata !114, metadata !1071}
!1090 = metadata !{i32 786478, i32 0, metadata !938, metadata !"to_uint", metadata !"to_uint", metadata !"_ZNK11ap_int_baseILi32ELb1ELb1EE7to_uintEv", metadata !98, i32 1722, metadata !1091, i1 false, i1 false, i32 0, i32 0, null, i32 256, i1 false, null, null, i32 0, metadata !110, i32 1722} ; [ DW_TAG_subprogram ]
!1091 = metadata !{i32 786453, i32 0, metadata !"", i32 0, i32 0, i64 0, i64 0, i64 0, i32 0, null, metadata !1092, i32 0, i32 0} ; [ DW_TAG_subroutine_type ]
!1092 = metadata !{metadata !160, metadata !1071}
!1093 = metadata !{i32 786478, i32 0, metadata !938, metadata !"to_long", metadata !"to_long", metadata !"_ZNK11ap_int_baseILi32ELb1ELb1EE7to_longEv", metadata !98, i32 1723, metadata !1094, i1 false, i1 false, i32 0, i32 0, null, i32 256, i1 false, null, null, i32 0, metadata !110, i32 1723} ; [ DW_TAG_subprogram ]
!1094 = metadata !{i32 786453, i32 0, metadata !"", i32 0, i32 0, i64 0, i64 0, i64 0, i32 0, null, metadata !1095, i32 0, i32 0} ; [ DW_TAG_subroutine_type ]
!1095 = metadata !{metadata !164, metadata !1071}
!1096 = metadata !{i32 786478, i32 0, metadata !938, metadata !"to_ulong", metadata !"to_ulong", metadata !"_ZNK11ap_int_baseILi32ELb1ELb1EE8to_ulongEv", metadata !98, i32 1724, metadata !1097, i1 false, i1 false, i32 0, i32 0, null, i32 256, i1 false, null, null, i32 0, metadata !110, i32 1724} ; [ DW_TAG_subprogram ]
!1097 = metadata !{i32 786453, i32 0, metadata !"", i32 0, i32 0, i64 0, i64 0, i64 0, i32 0, null, metadata !1098, i32 0, i32 0} ; [ DW_TAG_subroutine_type ]
!1098 = metadata !{metadata !168, metadata !1071}
!1099 = metadata !{i32 786478, i32 0, metadata !938, metadata !"to_int64", metadata !"to_int64", metadata !"_ZNK11ap_int_baseILi32ELb1ELb1EE8to_int64Ev", metadata !98, i32 1725, metadata !1100, i1 false, i1 false, i32 0, i32 0, null, i32 256, i1 false, null, null, i32 0, metadata !110, i32 1725} ; [ DW_TAG_subprogram ]
!1100 = metadata !{i32 786453, i32 0, metadata !"", i32 0, i32 0, i64 0, i64 0, i64 0, i32 0, null, metadata !1101, i32 0, i32 0} ; [ DW_TAG_subroutine_type ]
!1101 = metadata !{metadata !172, metadata !1071}
!1102 = metadata !{i32 786478, i32 0, metadata !938, metadata !"to_uint64", metadata !"to_uint64", metadata !"_ZNK11ap_int_baseILi32ELb1ELb1EE9to_uint64Ev", metadata !98, i32 1726, metadata !1103, i1 false, i1 false, i32 0, i32 0, null, i32 256, i1 false, null, null, i32 0, metadata !110, i32 1726} ; [ DW_TAG_subprogram ]
!1103 = metadata !{i32 786453, i32 0, metadata !"", i32 0, i32 0, i64 0, i64 0, i64 0, i32 0, null, metadata !1104, i32 0, i32 0} ; [ DW_TAG_subroutine_type ]
!1104 = metadata !{metadata !177, metadata !1071}
!1105 = metadata !{i32 786478, i32 0, metadata !938, metadata !"to_double", metadata !"to_double", metadata !"_ZNK11ap_int_baseILi32ELb1ELb1EE9to_doubleEv", metadata !98, i32 1727, metadata !1106, i1 false, i1 false, i32 0, i32 0, null, i32 256, i1 false, null, null, i32 0, metadata !110, i32 1727} ; [ DW_TAG_subprogram ]
!1106 = metadata !{i32 786453, i32 0, metadata !"", i32 0, i32 0, i64 0, i64 0, i64 0, i32 0, null, metadata !1107, i32 0, i32 0} ; [ DW_TAG_subroutine_type ]
!1107 = metadata !{metadata !191, metadata !1071}
!1108 = metadata !{i32 786478, i32 0, metadata !938, metadata !"length", metadata !"length", metadata !"_ZNK11ap_int_baseILi32ELb1ELb1EE6lengthEv", metadata !98, i32 1741, metadata !1088, i1 false, i1 false, i32 0, i32 0, null, i32 256, i1 false, null, null, i32 0, metadata !110, i32 1741} ; [ DW_TAG_subprogram ]
!1109 = metadata !{i32 786478, i32 0, metadata !938, metadata !"length", metadata !"length", metadata !"_ZNVK11ap_int_baseILi32ELb1ELb1EE6lengthEv", metadata !98, i32 1742, metadata !1110, i1 false, i1 false, i32 0, i32 0, null, i32 256, i1 false, null, null, i32 0, metadata !110, i32 1742} ; [ DW_TAG_subprogram ]
!1110 = metadata !{i32 786453, i32 0, metadata !"", i32 0, i32 0, i64 0, i64 0, i64 0, i32 0, null, metadata !1111, i32 0, i32 0} ; [ DW_TAG_subroutine_type ]
!1111 = metadata !{metadata !114, metadata !1112}
!1112 = metadata !{i32 786447, i32 0, metadata !"", i32 0, i32 0, i64 64, i64 64, i64 0, i32 64, metadata !966} ; [ DW_TAG_pointer_type ]
!1113 = metadata !{i32 786478, i32 0, metadata !938, metadata !"reverse", metadata !"reverse", metadata !"_ZN11ap_int_baseILi32ELb1ELb1EE7reverseEv", metadata !98, i32 1747, metadata !1114, i1 false, i1 false, i32 0, i32 0, null, i32 256, i1 false, null, null, i32 0, metadata !110, i32 1747} ; [ DW_TAG_subprogram ]
!1114 = metadata !{i32 786453, i32 0, metadata !"", i32 0, i32 0, i64 0, i64 0, i64 0, i32 0, null, metadata !1115, i32 0, i32 0} ; [ DW_TAG_subroutine_type ]
!1115 = metadata !{metadata !1030, metadata !955}
!1116 = metadata !{i32 786478, i32 0, metadata !938, metadata !"iszero", metadata !"iszero", metadata !"_ZNK11ap_int_baseILi32ELb1ELb1EE6iszeroEv", metadata !98, i32 1753, metadata !1073, i1 false, i1 false, i32 0, i32 0, null, i32 256, i1 false, null, null, i32 0, metadata !110, i32 1753} ; [ DW_TAG_subprogram ]
!1117 = metadata !{i32 786478, i32 0, metadata !938, metadata !"is_zero", metadata !"is_zero", metadata !"_ZNK11ap_int_baseILi32ELb1ELb1EE7is_zeroEv", metadata !98, i32 1758, metadata !1073, i1 false, i1 false, i32 0, i32 0, null, i32 256, i1 false, null, null, i32 0, metadata !110, i32 1758} ; [ DW_TAG_subprogram ]
!1118 = metadata !{i32 786478, i32 0, metadata !938, metadata !"sign", metadata !"sign", metadata !"_ZNK11ap_int_baseILi32ELb1ELb1EE4signEv", metadata !98, i32 1763, metadata !1073, i1 false, i1 false, i32 0, i32 0, null, i32 256, i1 false, null, null, i32 0, metadata !110, i32 1763} ; [ DW_TAG_subprogram ]
!1119 = metadata !{i32 786478, i32 0, metadata !938, metadata !"clear", metadata !"clear", metadata !"_ZN11ap_int_baseILi32ELb1ELb1EE5clearEi", metadata !98, i32 1771, metadata !984, i1 false, i1 false, i32 0, i32 0, null, i32 256, i1 false, null, null, i32 0, metadata !110, i32 1771} ; [ DW_TAG_subprogram ]
!1120 = metadata !{i32 786478, i32 0, metadata !938, metadata !"invert", metadata !"invert", metadata !"_ZN11ap_int_baseILi32ELb1ELb1EE6invertEi", metadata !98, i32 1777, metadata !984, i1 false, i1 false, i32 0, i32 0, null, i32 256, i1 false, null, null, i32 0, metadata !110, i32 1777} ; [ DW_TAG_subprogram ]
!1121 = metadata !{i32 786478, i32 0, metadata !938, metadata !"test", metadata !"test", metadata !"_ZNK11ap_int_baseILi32ELb1ELb1EE4testEi", metadata !98, i32 1785, metadata !1122, i1 false, i1 false, i32 0, i32 0, null, i32 256, i1 false, null, null, i32 0, metadata !110, i32 1785} ; [ DW_TAG_subprogram ]
!1122 = metadata !{i32 786453, i32 0, metadata !"", i32 0, i32 0, i64 0, i64 0, i64 0, i32 0, null, metadata !1123, i32 0, i32 0} ; [ DW_TAG_subroutine_type ]
!1123 = metadata !{metadata !116, metadata !1071, metadata !114}
!1124 = metadata !{i32 786478, i32 0, metadata !938, metadata !"set", metadata !"set", metadata !"_ZN11ap_int_baseILi32ELb1ELb1EE3setEi", metadata !98, i32 1791, metadata !984, i1 false, i1 false, i32 0, i32 0, null, i32 256, i1 false, null, null, i32 0, metadata !110, i32 1791} ; [ DW_TAG_subprogram ]
!1125 = metadata !{i32 786478, i32 0, metadata !938, metadata !"set", metadata !"set", metadata !"_ZN11ap_int_baseILi32ELb1ELb1EE3setEib", metadata !98, i32 1797, metadata !1126, i1 false, i1 false, i32 0, i32 0, null, i32 256, i1 false, null, null, i32 0, metadata !110, i32 1797} ; [ DW_TAG_subprogram ]
!1126 = metadata !{i32 786453, i32 0, metadata !"", i32 0, i32 0, i64 0, i64 0, i64 0, i32 0, null, metadata !1127, i32 0, i32 0} ; [ DW_TAG_subroutine_type ]
!1127 = metadata !{null, metadata !955, metadata !114, metadata !116}
!1128 = metadata !{i32 786478, i32 0, metadata !938, metadata !"lrotate", metadata !"lrotate", metadata !"_ZN11ap_int_baseILi32ELb1ELb1EE7lrotateEi", metadata !98, i32 1804, metadata !984, i1 false, i1 false, i32 0, i32 0, null, i32 256, i1 false, null, null, i32 0, metadata !110, i32 1804} ; [ DW_TAG_subprogram ]
!1129 = metadata !{i32 786478, i32 0, metadata !938, metadata !"rrotate", metadata !"rrotate", metadata !"_ZN11ap_int_baseILi32ELb1ELb1EE7rrotateEi", metadata !98, i32 1813, metadata !984, i1 false, i1 false, i32 0, i32 0, null, i32 256, i1 false, null, null, i32 0, metadata !110, i32 1813} ; [ DW_TAG_subprogram ]
!1130 = metadata !{i32 786478, i32 0, metadata !938, metadata !"set_bit", metadata !"set_bit", metadata !"_ZN11ap_int_baseILi32ELb1ELb1EE7set_bitEib", metadata !98, i32 1821, metadata !1126, i1 false, i1 false, i32 0, i32 0, null, i32 256, i1 false, null, null, i32 0, metadata !110, i32 1821} ; [ DW_TAG_subprogram ]
!1131 = metadata !{i32 786478, i32 0, metadata !938, metadata !"get_bit", metadata !"get_bit", metadata !"_ZNK11ap_int_baseILi32ELb1ELb1EE7get_bitEi", metadata !98, i32 1826, metadata !1122, i1 false, i1 false, i32 0, i32 0, null, i32 256, i1 false, null, null, i32 0, metadata !110, i32 1826} ; [ DW_TAG_subprogram ]
!1132 = metadata !{i32 786478, i32 0, metadata !938, metadata !"b_not", metadata !"b_not", metadata !"_ZN11ap_int_baseILi32ELb1ELb1EE5b_notEv", metadata !98, i32 1831, metadata !953, i1 false, i1 false, i32 0, i32 0, null, i32 256, i1 false, null, null, i32 0, metadata !110, i32 1831} ; [ DW_TAG_subprogram ]
!1133 = metadata !{i32 786478, i32 0, metadata !938, metadata !"countLeadingZeros", metadata !"countLeadingZeros", metadata !"_ZN11ap_int_baseILi32ELb1ELb1EE17countLeadingZerosEv", metadata !98, i32 1838, metadata !1134, i1 false, i1 false, i32 0, i32 0, null, i32 256, i1 false, null, null, i32 0, metadata !110, i32 1838} ; [ DW_TAG_subprogram ]
!1134 = metadata !{i32 786453, i32 0, metadata !"", i32 0, i32 0, i64 0, i64 0, i64 0, i32 0, null, metadata !1135, i32 0, i32 0} ; [ DW_TAG_subroutine_type ]
!1135 = metadata !{metadata !114, metadata !955}
!1136 = metadata !{i32 786478, i32 0, metadata !938, metadata !"operator++", metadata !"operator++", metadata !"_ZN11ap_int_baseILi32ELb1ELb1EEppEv", metadata !98, i32 1895, metadata !1114, i1 false, i1 false, i32 0, i32 0, null, i32 256, i1 false, null, null, i32 0, metadata !110, i32 1895} ; [ DW_TAG_subprogram ]
!1137 = metadata !{i32 786478, i32 0, metadata !938, metadata !"operator--", metadata !"operator--", metadata !"_ZN11ap_int_baseILi32ELb1ELb1EEmmEv", metadata !98, i32 1899, metadata !1114, i1 false, i1 false, i32 0, i32 0, null, i32 256, i1 false, null, null, i32 0, metadata !110, i32 1899} ; [ DW_TAG_subprogram ]
!1138 = metadata !{i32 786478, i32 0, metadata !938, metadata !"operator++", metadata !"operator++", metadata !"_ZN11ap_int_baseILi32ELb1ELb1EEppEi", metadata !98, i32 1907, metadata !1139, i1 false, i1 false, i32 0, i32 0, null, i32 256, i1 false, null, null, i32 0, metadata !110, i32 1907} ; [ DW_TAG_subprogram ]
!1139 = metadata !{i32 786453, i32 0, metadata !"", i32 0, i32 0, i64 0, i64 0, i64 0, i32 0, null, metadata !1140, i32 0, i32 0} ; [ DW_TAG_subroutine_type ]
!1140 = metadata !{metadata !937, metadata !955, metadata !114}
!1141 = metadata !{i32 786478, i32 0, metadata !938, metadata !"operator--", metadata !"operator--", metadata !"_ZN11ap_int_baseILi32ELb1ELb1EEmmEi", metadata !98, i32 1912, metadata !1139, i1 false, i1 false, i32 0, i32 0, null, i32 256, i1 false, null, null, i32 0, metadata !110, i32 1912} ; [ DW_TAG_subprogram ]
!1142 = metadata !{i32 786478, i32 0, metadata !938, metadata !"operator+", metadata !"operator+", metadata !"_ZNK11ap_int_baseILi32ELb1ELb1EEpsEv", metadata !98, i32 1921, metadata !1143, i1 false, i1 false, i32 0, i32 0, null, i32 256, i1 false, null, null, i32 0, metadata !110, i32 1921} ; [ DW_TAG_subprogram ]
!1143 = metadata !{i32 786453, i32 0, metadata !"", i32 0, i32 0, i64 0, i64 0, i64 0, i32 0, null, metadata !1144, i32 0, i32 0} ; [ DW_TAG_subroutine_type ]
!1144 = metadata !{metadata !938, metadata !1071}
!1145 = metadata !{i32 786478, i32 0, metadata !938, metadata !"operator!", metadata !"operator!", metadata !"_ZNK11ap_int_baseILi32ELb1ELb1EEntEv", metadata !98, i32 1927, metadata !1073, i1 false, i1 false, i32 0, i32 0, null, i32 256, i1 false, null, null, i32 0, metadata !110, i32 1927} ; [ DW_TAG_subprogram ]
!1146 = metadata !{i32 786478, i32 0, metadata !938, metadata !"operator-", metadata !"operator-", metadata !"_ZNK11ap_int_baseILi32ELb1ELb1EEngEv", metadata !98, i32 1932, metadata !1147, i1 false, i1 false, i32 0, i32 0, null, i32 256, i1 false, null, null, i32 0, metadata !110, i32 1932} ; [ DW_TAG_subprogram ]
!1147 = metadata !{i32 786453, i32 0, metadata !"", i32 0, i32 0, i64 0, i64 0, i64 0, i32 0, null, metadata !1148, i32 0, i32 0} ; [ DW_TAG_subroutine_type ]
!1148 = metadata !{metadata !1149, metadata !1071}
!1149 = metadata !{i32 786434, null, metadata !"ap_int_base<33, true, true>", metadata !98, i32 1453, i64 64, i64 64, i32 0, i32 0, null, metadata !1150, i32 0, null, metadata !1436} ; [ DW_TAG_class_type ]
!1150 = metadata !{metadata !1151, metadata !1162, metadata !1166, metadata !1173, metadata !1179, metadata !1182, metadata !1185, metadata !1188, metadata !1191, metadata !1194, metadata !1197, metadata !1200, metadata !1203, metadata !1206, metadata !1209, metadata !1212, metadata !1215, metadata !1218, metadata !1221, metadata !1224, metadata !1227, metadata !1231, metadata !1234, metadata !1237, metadata !1238, metadata !1242, metadata !1245, metadata !1248, metadata !1251, metadata !1254, metadata !1257, metadata !1260, metadata !1263, metadata !1266, metadata !1269, metadata !1272, metadata !1275, metadata !1284, metadata !1287, metadata !1290, metadata !1293, metadata !1296, metadata !1299, metadata !1302, metadata !1305, metadata !1308, metadata !1311, metadata !1314, metadata !1317, metadata !1320, metadata !1321, metadata !1325, metadata !1328, metadata !1329, metadata !1330, metadata !1331, metadata !1332, metadata !1333, metadata !1336, metadata !1337, metadata !1340, metadata !1341, metadata !1342, metadata !1343, metadata !1344, metadata !1345, metadata !1348, metadata !1349, metadata !1350, metadata !1353, metadata !1354, metadata !1357, metadata !1358, metadata !1362, metadata !1366, metadata !1367, metadata !1370, metadata !1371, metadata !1410, metadata !1411, metadata !1412, metadata !1413, metadata !1416, metadata !1417, metadata !1418, metadata !1419, metadata !1420, metadata !1421, metadata !1422, metadata !1423, metadata !1424, metadata !1425, metadata !1426, metadata !1427, metadata !1430, metadata !1433}
!1151 = metadata !{i32 786460, metadata !1149, null, metadata !98, i32 0, i64 0, i64 0, i64 0, i32 0, metadata !1152} ; [ DW_TAG_inheritance ]
!1152 = metadata !{i32 786434, null, metadata !"ssdm_int<33 + 1024 * 0, true>", metadata !102, i32 35, i64 64, i64 64, i32 0, i32 0, null, metadata !1153, i32 0, null, metadata !1160} ; [ DW_TAG_class_type ]
!1153 = metadata !{metadata !1154, metadata !1156}
!1154 = metadata !{i32 786445, metadata !1152, metadata !"V", metadata !102, i32 35, i64 33, i64 64, i64 0, i32 0, metadata !1155} ; [ DW_TAG_member ]
!1155 = metadata !{i32 786468, null, metadata !"int33", null, i32 0, i64 33, i64 64, i64 0, i32 0, i32 5} ; [ DW_TAG_base_type ]
!1156 = metadata !{i32 786478, i32 0, metadata !1152, metadata !"ssdm_int", metadata !"ssdm_int", metadata !"", metadata !102, i32 35, metadata !1157, i1 false, i1 false, i32 0, i32 0, null, i32 256, i1 false, null, null, i32 0, metadata !110, i32 35} ; [ DW_TAG_subprogram ]
!1157 = metadata !{i32 786453, i32 0, metadata !"", i32 0, i32 0, i64 0, i64 0, i64 0, i32 0, null, metadata !1158, i32 0, i32 0} ; [ DW_TAG_subroutine_type ]
!1158 = metadata !{null, metadata !1159}
!1159 = metadata !{i32 786447, i32 0, metadata !"", i32 0, i32 0, i64 64, i64 64, i64 0, i32 64, metadata !1152} ; [ DW_TAG_pointer_type ]
!1160 = metadata !{metadata !1161, metadata !951}
!1161 = metadata !{i32 786480, null, metadata !"_AP_N", metadata !114, i64 33, null, i32 0, i32 0} ; [ DW_TAG_template_value_parameter ]
!1162 = metadata !{i32 786478, i32 0, metadata !1149, metadata !"ap_int_base", metadata !"ap_int_base", metadata !"", metadata !98, i32 1494, metadata !1163, i1 false, i1 false, i32 0, i32 0, null, i32 256, i1 false, null, null, i32 0, metadata !110, i32 1494} ; [ DW_TAG_subprogram ]
!1163 = metadata !{i32 786453, i32 0, metadata !"", i32 0, i32 0, i64 0, i64 0, i64 0, i32 0, null, metadata !1164, i32 0, i32 0} ; [ DW_TAG_subroutine_type ]
!1164 = metadata !{null, metadata !1165}
!1165 = metadata !{i32 786447, i32 0, metadata !"", i32 0, i32 0, i64 64, i64 64, i64 0, i32 64, metadata !1149} ; [ DW_TAG_pointer_type ]
!1166 = metadata !{i32 786478, i32 0, metadata !1149, metadata !"ap_int_base<33, true>", metadata !"ap_int_base<33, true>", metadata !"", metadata !98, i32 1506, metadata !1167, i1 false, i1 false, i32 0, i32 0, null, i32 256, i1 false, null, metadata !1171, i32 0, metadata !110, i32 1506} ; [ DW_TAG_subprogram ]
!1167 = metadata !{i32 786453, i32 0, metadata !"", i32 0, i32 0, i64 0, i64 0, i64 0, i32 0, null, metadata !1168, i32 0, i32 0} ; [ DW_TAG_subroutine_type ]
!1168 = metadata !{null, metadata !1165, metadata !1169}
!1169 = metadata !{i32 786448, null, null, null, i32 0, i64 0, i64 0, i64 0, i32 0, metadata !1170} ; [ DW_TAG_reference_type ]
!1170 = metadata !{i32 786470, null, metadata !"", null, i32 0, i64 0, i64 0, i64 0, i32 0, metadata !1149} ; [ DW_TAG_const_type ]
!1171 = metadata !{metadata !1172, metadata !961}
!1172 = metadata !{i32 786480, null, metadata !"_AP_W2", metadata !114, i64 33, null, i32 0, i32 0} ; [ DW_TAG_template_value_parameter ]
!1173 = metadata !{i32 786478, i32 0, metadata !1149, metadata !"ap_int_base<33, true>", metadata !"ap_int_base<33, true>", metadata !"", metadata !98, i32 1509, metadata !1174, i1 false, i1 false, i32 0, i32 0, null, i32 256, i1 false, null, metadata !1171, i32 0, metadata !110, i32 1509} ; [ DW_TAG_subprogram ]
!1174 = metadata !{i32 786453, i32 0, metadata !"", i32 0, i32 0, i64 0, i64 0, i64 0, i32 0, null, metadata !1175, i32 0, i32 0} ; [ DW_TAG_subroutine_type ]
!1175 = metadata !{null, metadata !1165, metadata !1176}
!1176 = metadata !{i32 786448, null, null, null, i32 0, i64 0, i64 0, i64 0, i32 0, metadata !1177} ; [ DW_TAG_reference_type ]
!1177 = metadata !{i32 786470, null, metadata !"", null, i32 0, i64 0, i64 0, i64 0, i32 0, metadata !1178} ; [ DW_TAG_const_type ]
!1178 = metadata !{i32 786485, null, metadata !"", null, i32 0, i64 0, i64 0, i64 0, i32 0, metadata !1149} ; [ DW_TAG_volatile_type ]
!1179 = metadata !{i32 786478, i32 0, metadata !1149, metadata !"ap_int_base", metadata !"ap_int_base", metadata !"", metadata !98, i32 1516, metadata !1180, i1 false, i1 false, i32 0, i32 0, null, i32 384, i1 false, null, null, i32 0, metadata !110, i32 1516} ; [ DW_TAG_subprogram ]
!1180 = metadata !{i32 786453, i32 0, metadata !"", i32 0, i32 0, i64 0, i64 0, i64 0, i32 0, null, metadata !1181, i32 0, i32 0} ; [ DW_TAG_subroutine_type ]
!1181 = metadata !{null, metadata !1165, metadata !116}
!1182 = metadata !{i32 786478, i32 0, metadata !1149, metadata !"ap_int_base", metadata !"ap_int_base", metadata !"", metadata !98, i32 1517, metadata !1183, i1 false, i1 false, i32 0, i32 0, null, i32 384, i1 false, null, null, i32 0, metadata !110, i32 1517} ; [ DW_TAG_subprogram ]
!1183 = metadata !{i32 786453, i32 0, metadata !"", i32 0, i32 0, i64 0, i64 0, i64 0, i32 0, null, metadata !1184, i32 0, i32 0} ; [ DW_TAG_subroutine_type ]
!1184 = metadata !{null, metadata !1165, metadata !141}
!1185 = metadata !{i32 786478, i32 0, metadata !1149, metadata !"ap_int_base", metadata !"ap_int_base", metadata !"", metadata !98, i32 1518, metadata !1186, i1 false, i1 false, i32 0, i32 0, null, i32 384, i1 false, null, null, i32 0, metadata !110, i32 1518} ; [ DW_TAG_subprogram ]
!1186 = metadata !{i32 786453, i32 0, metadata !"", i32 0, i32 0, i64 0, i64 0, i64 0, i32 0, null, metadata !1187, i32 0, i32 0} ; [ DW_TAG_subroutine_type ]
!1187 = metadata !{null, metadata !1165, metadata !145}
!1188 = metadata !{i32 786478, i32 0, metadata !1149, metadata !"ap_int_base", metadata !"ap_int_base", metadata !"", metadata !98, i32 1519, metadata !1189, i1 false, i1 false, i32 0, i32 0, null, i32 384, i1 false, null, null, i32 0, metadata !110, i32 1519} ; [ DW_TAG_subprogram ]
!1189 = metadata !{i32 786453, i32 0, metadata !"", i32 0, i32 0, i64 0, i64 0, i64 0, i32 0, null, metadata !1190, i32 0, i32 0} ; [ DW_TAG_subroutine_type ]
!1190 = metadata !{null, metadata !1165, metadata !149}
!1191 = metadata !{i32 786478, i32 0, metadata !1149, metadata !"ap_int_base", metadata !"ap_int_base", metadata !"", metadata !98, i32 1520, metadata !1192, i1 false, i1 false, i32 0, i32 0, null, i32 384, i1 false, null, null, i32 0, metadata !110, i32 1520} ; [ DW_TAG_subprogram ]
!1192 = metadata !{i32 786453, i32 0, metadata !"", i32 0, i32 0, i64 0, i64 0, i64 0, i32 0, null, metadata !1193, i32 0, i32 0} ; [ DW_TAG_subroutine_type ]
!1193 = metadata !{null, metadata !1165, metadata !153}
!1194 = metadata !{i32 786478, i32 0, metadata !1149, metadata !"ap_int_base", metadata !"ap_int_base", metadata !"", metadata !98, i32 1521, metadata !1195, i1 false, i1 false, i32 0, i32 0, null, i32 384, i1 false, null, null, i32 0, metadata !110, i32 1521} ; [ DW_TAG_subprogram ]
!1195 = metadata !{i32 786453, i32 0, metadata !"", i32 0, i32 0, i64 0, i64 0, i64 0, i32 0, null, metadata !1196, i32 0, i32 0} ; [ DW_TAG_subroutine_type ]
!1196 = metadata !{null, metadata !1165, metadata !114}
!1197 = metadata !{i32 786478, i32 0, metadata !1149, metadata !"ap_int_base", metadata !"ap_int_base", metadata !"", metadata !98, i32 1522, metadata !1198, i1 false, i1 false, i32 0, i32 0, null, i32 384, i1 false, null, null, i32 0, metadata !110, i32 1522} ; [ DW_TAG_subprogram ]
!1198 = metadata !{i32 786453, i32 0, metadata !"", i32 0, i32 0, i64 0, i64 0, i64 0, i32 0, null, metadata !1199, i32 0, i32 0} ; [ DW_TAG_subroutine_type ]
!1199 = metadata !{null, metadata !1165, metadata !160}
!1200 = metadata !{i32 786478, i32 0, metadata !1149, metadata !"ap_int_base", metadata !"ap_int_base", metadata !"", metadata !98, i32 1523, metadata !1201, i1 false, i1 false, i32 0, i32 0, null, i32 384, i1 false, null, null, i32 0, metadata !110, i32 1523} ; [ DW_TAG_subprogram ]
!1201 = metadata !{i32 786453, i32 0, metadata !"", i32 0, i32 0, i64 0, i64 0, i64 0, i32 0, null, metadata !1202, i32 0, i32 0} ; [ DW_TAG_subroutine_type ]
!1202 = metadata !{null, metadata !1165, metadata !164}
!1203 = metadata !{i32 786478, i32 0, metadata !1149, metadata !"ap_int_base", metadata !"ap_int_base", metadata !"", metadata !98, i32 1524, metadata !1204, i1 false, i1 false, i32 0, i32 0, null, i32 384, i1 false, null, null, i32 0, metadata !110, i32 1524} ; [ DW_TAG_subprogram ]
!1204 = metadata !{i32 786453, i32 0, metadata !"", i32 0, i32 0, i64 0, i64 0, i64 0, i32 0, null, metadata !1205, i32 0, i32 0} ; [ DW_TAG_subroutine_type ]
!1205 = metadata !{null, metadata !1165, metadata !168}
!1206 = metadata !{i32 786478, i32 0, metadata !1149, metadata !"ap_int_base", metadata !"ap_int_base", metadata !"", metadata !98, i32 1525, metadata !1207, i1 false, i1 false, i32 0, i32 0, null, i32 384, i1 false, null, null, i32 0, metadata !110, i32 1525} ; [ DW_TAG_subprogram ]
!1207 = metadata !{i32 786453, i32 0, metadata !"", i32 0, i32 0, i64 0, i64 0, i64 0, i32 0, null, metadata !1208, i32 0, i32 0} ; [ DW_TAG_subroutine_type ]
!1208 = metadata !{null, metadata !1165, metadata !172}
!1209 = metadata !{i32 786478, i32 0, metadata !1149, metadata !"ap_int_base", metadata !"ap_int_base", metadata !"", metadata !98, i32 1526, metadata !1210, i1 false, i1 false, i32 0, i32 0, null, i32 384, i1 false, null, null, i32 0, metadata !110, i32 1526} ; [ DW_TAG_subprogram ]
!1210 = metadata !{i32 786453, i32 0, metadata !"", i32 0, i32 0, i64 0, i64 0, i64 0, i32 0, null, metadata !1211, i32 0, i32 0} ; [ DW_TAG_subroutine_type ]
!1211 = metadata !{null, metadata !1165, metadata !177}
!1212 = metadata !{i32 786478, i32 0, metadata !1149, metadata !"ap_int_base", metadata !"ap_int_base", metadata !"", metadata !98, i32 1527, metadata !1213, i1 false, i1 false, i32 0, i32 0, null, i32 384, i1 false, null, null, i32 0, metadata !110, i32 1527} ; [ DW_TAG_subprogram ]
!1213 = metadata !{i32 786453, i32 0, metadata !"", i32 0, i32 0, i64 0, i64 0, i64 0, i32 0, null, metadata !1214, i32 0, i32 0} ; [ DW_TAG_subroutine_type ]
!1214 = metadata !{null, metadata !1165, metadata !182}
!1215 = metadata !{i32 786478, i32 0, metadata !1149, metadata !"ap_int_base", metadata !"ap_int_base", metadata !"", metadata !98, i32 1528, metadata !1216, i1 false, i1 false, i32 0, i32 0, null, i32 384, i1 false, null, null, i32 0, metadata !110, i32 1528} ; [ DW_TAG_subprogram ]
!1216 = metadata !{i32 786453, i32 0, metadata !"", i32 0, i32 0, i64 0, i64 0, i64 0, i32 0, null, metadata !1217, i32 0, i32 0} ; [ DW_TAG_subroutine_type ]
!1217 = metadata !{null, metadata !1165, metadata !187}
!1218 = metadata !{i32 786478, i32 0, metadata !1149, metadata !"ap_int_base", metadata !"ap_int_base", metadata !"", metadata !98, i32 1529, metadata !1219, i1 false, i1 false, i32 0, i32 0, null, i32 384, i1 false, null, null, i32 0, metadata !110, i32 1529} ; [ DW_TAG_subprogram ]
!1219 = metadata !{i32 786453, i32 0, metadata !"", i32 0, i32 0, i64 0, i64 0, i64 0, i32 0, null, metadata !1220, i32 0, i32 0} ; [ DW_TAG_subroutine_type ]
!1220 = metadata !{null, metadata !1165, metadata !191}
!1221 = metadata !{i32 786478, i32 0, metadata !1149, metadata !"ap_int_base", metadata !"ap_int_base", metadata !"", metadata !98, i32 1556, metadata !1222, i1 false, i1 false, i32 0, i32 0, null, i32 256, i1 false, null, null, i32 0, metadata !110, i32 1556} ; [ DW_TAG_subprogram ]
!1222 = metadata !{i32 786453, i32 0, metadata !"", i32 0, i32 0, i64 0, i64 0, i64 0, i32 0, null, metadata !1223, i32 0, i32 0} ; [ DW_TAG_subroutine_type ]
!1223 = metadata !{null, metadata !1165, metadata !195}
!1224 = metadata !{i32 786478, i32 0, metadata !1149, metadata !"ap_int_base", metadata !"ap_int_base", metadata !"", metadata !98, i32 1563, metadata !1225, i1 false, i1 false, i32 0, i32 0, null, i32 256, i1 false, null, null, i32 0, metadata !110, i32 1563} ; [ DW_TAG_subprogram ]
!1225 = metadata !{i32 786453, i32 0, metadata !"", i32 0, i32 0, i64 0, i64 0, i64 0, i32 0, null, metadata !1226, i32 0, i32 0} ; [ DW_TAG_subroutine_type ]
!1226 = metadata !{null, metadata !1165, metadata !195, metadata !141}
!1227 = metadata !{i32 786478, i32 0, metadata !1149, metadata !"read", metadata !"read", metadata !"_ZNV11ap_int_baseILi33ELb1ELb1EE4readEv", metadata !98, i32 1584, metadata !1228, i1 false, i1 false, i32 0, i32 0, null, i32 256, i1 false, null, null, i32 0, metadata !110, i32 1584} ; [ DW_TAG_subprogram ]
!1228 = metadata !{i32 786453, i32 0, metadata !"", i32 0, i32 0, i64 0, i64 0, i64 0, i32 0, null, metadata !1229, i32 0, i32 0} ; [ DW_TAG_subroutine_type ]
!1229 = metadata !{metadata !1149, metadata !1230}
!1230 = metadata !{i32 786447, i32 0, metadata !"", i32 0, i32 0, i64 64, i64 64, i64 0, i32 64, metadata !1178} ; [ DW_TAG_pointer_type ]
!1231 = metadata !{i32 786478, i32 0, metadata !1149, metadata !"write", metadata !"write", metadata !"_ZNV11ap_int_baseILi33ELb1ELb1EE5writeERKS0_", metadata !98, i32 1590, metadata !1232, i1 false, i1 false, i32 0, i32 0, null, i32 256, i1 false, null, null, i32 0, metadata !110, i32 1590} ; [ DW_TAG_subprogram ]
!1232 = metadata !{i32 786453, i32 0, metadata !"", i32 0, i32 0, i64 0, i64 0, i64 0, i32 0, null, metadata !1233, i32 0, i32 0} ; [ DW_TAG_subroutine_type ]
!1233 = metadata !{null, metadata !1230, metadata !1169}
!1234 = metadata !{i32 786478, i32 0, metadata !1149, metadata !"operator=", metadata !"operator=", metadata !"_ZNV11ap_int_baseILi33ELb1ELb1EEaSERVKS0_", metadata !98, i32 1602, metadata !1235, i1 false, i1 false, i32 0, i32 0, null, i32 256, i1 false, null, null, i32 0, metadata !110, i32 1602} ; [ DW_TAG_subprogram ]
!1235 = metadata !{i32 786453, i32 0, metadata !"", i32 0, i32 0, i64 0, i64 0, i64 0, i32 0, null, metadata !1236, i32 0, i32 0} ; [ DW_TAG_subroutine_type ]
!1236 = metadata !{null, metadata !1230, metadata !1176}
!1237 = metadata !{i32 786478, i32 0, metadata !1149, metadata !"operator=", metadata !"operator=", metadata !"_ZNV11ap_int_baseILi33ELb1ELb1EEaSERKS0_", metadata !98, i32 1611, metadata !1232, i1 false, i1 false, i32 0, i32 0, null, i32 256, i1 false, null, null, i32 0, metadata !110, i32 1611} ; [ DW_TAG_subprogram ]
!1238 = metadata !{i32 786478, i32 0, metadata !1149, metadata !"operator=", metadata !"operator=", metadata !"_ZN11ap_int_baseILi33ELb1ELb1EEaSERVKS0_", metadata !98, i32 1634, metadata !1239, i1 false, i1 false, i32 0, i32 0, null, i32 256, i1 false, null, null, i32 0, metadata !110, i32 1634} ; [ DW_TAG_subprogram ]
!1239 = metadata !{i32 786453, i32 0, metadata !"", i32 0, i32 0, i64 0, i64 0, i64 0, i32 0, null, metadata !1240, i32 0, i32 0} ; [ DW_TAG_subroutine_type ]
!1240 = metadata !{metadata !1241, metadata !1165, metadata !1176}
!1241 = metadata !{i32 786448, null, null, null, i32 0, i64 0, i64 0, i64 0, i32 0, metadata !1149} ; [ DW_TAG_reference_type ]
!1242 = metadata !{i32 786478, i32 0, metadata !1149, metadata !"operator=", metadata !"operator=", metadata !"_ZN11ap_int_baseILi33ELb1ELb1EEaSERKS0_", metadata !98, i32 1639, metadata !1243, i1 false, i1 false, i32 0, i32 0, null, i32 256, i1 false, null, null, i32 0, metadata !110, i32 1639} ; [ DW_TAG_subprogram ]
!1243 = metadata !{i32 786453, i32 0, metadata !"", i32 0, i32 0, i64 0, i64 0, i64 0, i32 0, null, metadata !1244, i32 0, i32 0} ; [ DW_TAG_subroutine_type ]
!1244 = metadata !{metadata !1241, metadata !1165, metadata !1169}
!1245 = metadata !{i32 786478, i32 0, metadata !1149, metadata !"operator=", metadata !"operator=", metadata !"_ZN11ap_int_baseILi33ELb1ELb1EEaSEPKc", metadata !98, i32 1643, metadata !1246, i1 false, i1 false, i32 0, i32 0, null, i32 256, i1 false, null, null, i32 0, metadata !110, i32 1643} ; [ DW_TAG_subprogram ]
!1246 = metadata !{i32 786453, i32 0, metadata !"", i32 0, i32 0, i64 0, i64 0, i64 0, i32 0, null, metadata !1247, i32 0, i32 0} ; [ DW_TAG_subroutine_type ]
!1247 = metadata !{metadata !1241, metadata !1165, metadata !195}
!1248 = metadata !{i32 786478, i32 0, metadata !1149, metadata !"set", metadata !"set", metadata !"_ZN11ap_int_baseILi33ELb1ELb1EE3setEPKca", metadata !98, i32 1651, metadata !1249, i1 false, i1 false, i32 0, i32 0, null, i32 256, i1 false, null, null, i32 0, metadata !110, i32 1651} ; [ DW_TAG_subprogram ]
!1249 = metadata !{i32 786453, i32 0, metadata !"", i32 0, i32 0, i64 0, i64 0, i64 0, i32 0, null, metadata !1250, i32 0, i32 0} ; [ DW_TAG_subroutine_type ]
!1250 = metadata !{metadata !1241, metadata !1165, metadata !195, metadata !141}
!1251 = metadata !{i32 786478, i32 0, metadata !1149, metadata !"operator=", metadata !"operator=", metadata !"_ZN11ap_int_baseILi33ELb1ELb1EEaSEa", metadata !98, i32 1665, metadata !1252, i1 false, i1 false, i32 0, i32 0, null, i32 256, i1 false, null, null, i32 0, metadata !110, i32 1665} ; [ DW_TAG_subprogram ]
!1252 = metadata !{i32 786453, i32 0, metadata !"", i32 0, i32 0, i64 0, i64 0, i64 0, i32 0, null, metadata !1253, i32 0, i32 0} ; [ DW_TAG_subroutine_type ]
!1253 = metadata !{metadata !1241, metadata !1165, metadata !141}
!1254 = metadata !{i32 786478, i32 0, metadata !1149, metadata !"operator=", metadata !"operator=", metadata !"_ZN11ap_int_baseILi33ELb1ELb1EEaSEh", metadata !98, i32 1666, metadata !1255, i1 false, i1 false, i32 0, i32 0, null, i32 256, i1 false, null, null, i32 0, metadata !110, i32 1666} ; [ DW_TAG_subprogram ]
!1255 = metadata !{i32 786453, i32 0, metadata !"", i32 0, i32 0, i64 0, i64 0, i64 0, i32 0, null, metadata !1256, i32 0, i32 0} ; [ DW_TAG_subroutine_type ]
!1256 = metadata !{metadata !1241, metadata !1165, metadata !145}
!1257 = metadata !{i32 786478, i32 0, metadata !1149, metadata !"operator=", metadata !"operator=", metadata !"_ZN11ap_int_baseILi33ELb1ELb1EEaSEs", metadata !98, i32 1667, metadata !1258, i1 false, i1 false, i32 0, i32 0, null, i32 256, i1 false, null, null, i32 0, metadata !110, i32 1667} ; [ DW_TAG_subprogram ]
!1258 = metadata !{i32 786453, i32 0, metadata !"", i32 0, i32 0, i64 0, i64 0, i64 0, i32 0, null, metadata !1259, i32 0, i32 0} ; [ DW_TAG_subroutine_type ]
!1259 = metadata !{metadata !1241, metadata !1165, metadata !149}
!1260 = metadata !{i32 786478, i32 0, metadata !1149, metadata !"operator=", metadata !"operator=", metadata !"_ZN11ap_int_baseILi33ELb1ELb1EEaSEt", metadata !98, i32 1668, metadata !1261, i1 false, i1 false, i32 0, i32 0, null, i32 256, i1 false, null, null, i32 0, metadata !110, i32 1668} ; [ DW_TAG_subprogram ]
!1261 = metadata !{i32 786453, i32 0, metadata !"", i32 0, i32 0, i64 0, i64 0, i64 0, i32 0, null, metadata !1262, i32 0, i32 0} ; [ DW_TAG_subroutine_type ]
!1262 = metadata !{metadata !1241, metadata !1165, metadata !153}
!1263 = metadata !{i32 786478, i32 0, metadata !1149, metadata !"operator=", metadata !"operator=", metadata !"_ZN11ap_int_baseILi33ELb1ELb1EEaSEi", metadata !98, i32 1669, metadata !1264, i1 false, i1 false, i32 0, i32 0, null, i32 256, i1 false, null, null, i32 0, metadata !110, i32 1669} ; [ DW_TAG_subprogram ]
!1264 = metadata !{i32 786453, i32 0, metadata !"", i32 0, i32 0, i64 0, i64 0, i64 0, i32 0, null, metadata !1265, i32 0, i32 0} ; [ DW_TAG_subroutine_type ]
!1265 = metadata !{metadata !1241, metadata !1165, metadata !114}
!1266 = metadata !{i32 786478, i32 0, metadata !1149, metadata !"operator=", metadata !"operator=", metadata !"_ZN11ap_int_baseILi33ELb1ELb1EEaSEj", metadata !98, i32 1670, metadata !1267, i1 false, i1 false, i32 0, i32 0, null, i32 256, i1 false, null, null, i32 0, metadata !110, i32 1670} ; [ DW_TAG_subprogram ]
!1267 = metadata !{i32 786453, i32 0, metadata !"", i32 0, i32 0, i64 0, i64 0, i64 0, i32 0, null, metadata !1268, i32 0, i32 0} ; [ DW_TAG_subroutine_type ]
!1268 = metadata !{metadata !1241, metadata !1165, metadata !160}
!1269 = metadata !{i32 786478, i32 0, metadata !1149, metadata !"operator=", metadata !"operator=", metadata !"_ZN11ap_int_baseILi33ELb1ELb1EEaSEx", metadata !98, i32 1671, metadata !1270, i1 false, i1 false, i32 0, i32 0, null, i32 256, i1 false, null, null, i32 0, metadata !110, i32 1671} ; [ DW_TAG_subprogram ]
!1270 = metadata !{i32 786453, i32 0, metadata !"", i32 0, i32 0, i64 0, i64 0, i64 0, i32 0, null, metadata !1271, i32 0, i32 0} ; [ DW_TAG_subroutine_type ]
!1271 = metadata !{metadata !1241, metadata !1165, metadata !172}
!1272 = metadata !{i32 786478, i32 0, metadata !1149, metadata !"operator=", metadata !"operator=", metadata !"_ZN11ap_int_baseILi33ELb1ELb1EEaSEy", metadata !98, i32 1672, metadata !1273, i1 false, i1 false, i32 0, i32 0, null, i32 256, i1 false, null, null, i32 0, metadata !110, i32 1672} ; [ DW_TAG_subprogram ]
!1273 = metadata !{i32 786453, i32 0, metadata !"", i32 0, i32 0, i64 0, i64 0, i64 0, i32 0, null, metadata !1274, i32 0, i32 0} ; [ DW_TAG_subroutine_type ]
!1274 = metadata !{metadata !1241, metadata !1165, metadata !177}
!1275 = metadata !{i32 786478, i32 0, metadata !1149, metadata !"operator long long", metadata !"operator long long", metadata !"_ZNK11ap_int_baseILi33ELb1ELb1EEcvxEv", metadata !98, i32 1710, metadata !1276, i1 false, i1 false, i32 0, i32 0, null, i32 256, i1 false, null, null, i32 0, metadata !110, i32 1710} ; [ DW_TAG_subprogram ]
!1276 = metadata !{i32 786453, i32 0, metadata !"", i32 0, i32 0, i64 0, i64 0, i64 0, i32 0, null, metadata !1277, i32 0, i32 0} ; [ DW_TAG_subroutine_type ]
!1277 = metadata !{metadata !1278, metadata !1283}
!1278 = metadata !{i32 786454, metadata !1149, metadata !"RetType", metadata !98, i32 1458, i64 0, i64 0, i64 0, i32 0, metadata !1279} ; [ DW_TAG_typedef ]
!1279 = metadata !{i32 786454, metadata !1280, metadata !"Type", metadata !98, i32 1415, i64 0, i64 0, i64 0, i32 0, metadata !172} ; [ DW_TAG_typedef ]
!1280 = metadata !{i32 786434, null, metadata !"retval<5, true>", metadata !98, i32 1414, i64 8, i64 8, i32 0, i32 0, null, metadata !255, i32 0, null, metadata !1281} ; [ DW_TAG_class_type ]
!1281 = metadata !{metadata !1282, metadata !951}
!1282 = metadata !{i32 786480, null, metadata !"_AP_N", metadata !114, i64 5, null, i32 0, i32 0} ; [ DW_TAG_template_value_parameter ]
!1283 = metadata !{i32 786447, i32 0, metadata !"", i32 0, i32 0, i64 64, i64 64, i64 0, i32 64, metadata !1170} ; [ DW_TAG_pointer_type ]
!1284 = metadata !{i32 786478, i32 0, metadata !1149, metadata !"to_bool", metadata !"to_bool", metadata !"_ZNK11ap_int_baseILi33ELb1ELb1EE7to_boolEv", metadata !98, i32 1716, metadata !1285, i1 false, i1 false, i32 0, i32 0, null, i32 256, i1 false, null, null, i32 0, metadata !110, i32 1716} ; [ DW_TAG_subprogram ]
!1285 = metadata !{i32 786453, i32 0, metadata !"", i32 0, i32 0, i64 0, i64 0, i64 0, i32 0, null, metadata !1286, i32 0, i32 0} ; [ DW_TAG_subroutine_type ]
!1286 = metadata !{metadata !116, metadata !1283}
!1287 = metadata !{i32 786478, i32 0, metadata !1149, metadata !"to_uchar", metadata !"to_uchar", metadata !"_ZNK11ap_int_baseILi33ELb1ELb1EE8to_ucharEv", metadata !98, i32 1717, metadata !1288, i1 false, i1 false, i32 0, i32 0, null, i32 256, i1 false, null, null, i32 0, metadata !110, i32 1717} ; [ DW_TAG_subprogram ]
!1288 = metadata !{i32 786453, i32 0, metadata !"", i32 0, i32 0, i64 0, i64 0, i64 0, i32 0, null, metadata !1289, i32 0, i32 0} ; [ DW_TAG_subroutine_type ]
!1289 = metadata !{metadata !145, metadata !1283}
!1290 = metadata !{i32 786478, i32 0, metadata !1149, metadata !"to_char", metadata !"to_char", metadata !"_ZNK11ap_int_baseILi33ELb1ELb1EE7to_charEv", metadata !98, i32 1718, metadata !1291, i1 false, i1 false, i32 0, i32 0, null, i32 256, i1 false, null, null, i32 0, metadata !110, i32 1718} ; [ DW_TAG_subprogram ]
!1291 = metadata !{i32 786453, i32 0, metadata !"", i32 0, i32 0, i64 0, i64 0, i64 0, i32 0, null, metadata !1292, i32 0, i32 0} ; [ DW_TAG_subroutine_type ]
!1292 = metadata !{metadata !141, metadata !1283}
!1293 = metadata !{i32 786478, i32 0, metadata !1149, metadata !"to_ushort", metadata !"to_ushort", metadata !"_ZNK11ap_int_baseILi33ELb1ELb1EE9to_ushortEv", metadata !98, i32 1719, metadata !1294, i1 false, i1 false, i32 0, i32 0, null, i32 256, i1 false, null, null, i32 0, metadata !110, i32 1719} ; [ DW_TAG_subprogram ]
!1294 = metadata !{i32 786453, i32 0, metadata !"", i32 0, i32 0, i64 0, i64 0, i64 0, i32 0, null, metadata !1295, i32 0, i32 0} ; [ DW_TAG_subroutine_type ]
!1295 = metadata !{metadata !153, metadata !1283}
!1296 = metadata !{i32 786478, i32 0, metadata !1149, metadata !"to_short", metadata !"to_short", metadata !"_ZNK11ap_int_baseILi33ELb1ELb1EE8to_shortEv", metadata !98, i32 1720, metadata !1297, i1 false, i1 false, i32 0, i32 0, null, i32 256, i1 false, null, null, i32 0, metadata !110, i32 1720} ; [ DW_TAG_subprogram ]
!1297 = metadata !{i32 786453, i32 0, metadata !"", i32 0, i32 0, i64 0, i64 0, i64 0, i32 0, null, metadata !1298, i32 0, i32 0} ; [ DW_TAG_subroutine_type ]
!1298 = metadata !{metadata !149, metadata !1283}
!1299 = metadata !{i32 786478, i32 0, metadata !1149, metadata !"to_int", metadata !"to_int", metadata !"_ZNK11ap_int_baseILi33ELb1ELb1EE6to_intEv", metadata !98, i32 1721, metadata !1300, i1 false, i1 false, i32 0, i32 0, null, i32 256, i1 false, null, null, i32 0, metadata !110, i32 1721} ; [ DW_TAG_subprogram ]
!1300 = metadata !{i32 786453, i32 0, metadata !"", i32 0, i32 0, i64 0, i64 0, i64 0, i32 0, null, metadata !1301, i32 0, i32 0} ; [ DW_TAG_subroutine_type ]
!1301 = metadata !{metadata !114, metadata !1283}
!1302 = metadata !{i32 786478, i32 0, metadata !1149, metadata !"to_uint", metadata !"to_uint", metadata !"_ZNK11ap_int_baseILi33ELb1ELb1EE7to_uintEv", metadata !98, i32 1722, metadata !1303, i1 false, i1 false, i32 0, i32 0, null, i32 256, i1 false, null, null, i32 0, metadata !110, i32 1722} ; [ DW_TAG_subprogram ]
!1303 = metadata !{i32 786453, i32 0, metadata !"", i32 0, i32 0, i64 0, i64 0, i64 0, i32 0, null, metadata !1304, i32 0, i32 0} ; [ DW_TAG_subroutine_type ]
!1304 = metadata !{metadata !160, metadata !1283}
!1305 = metadata !{i32 786478, i32 0, metadata !1149, metadata !"to_long", metadata !"to_long", metadata !"_ZNK11ap_int_baseILi33ELb1ELb1EE7to_longEv", metadata !98, i32 1723, metadata !1306, i1 false, i1 false, i32 0, i32 0, null, i32 256, i1 false, null, null, i32 0, metadata !110, i32 1723} ; [ DW_TAG_subprogram ]
!1306 = metadata !{i32 786453, i32 0, metadata !"", i32 0, i32 0, i64 0, i64 0, i64 0, i32 0, null, metadata !1307, i32 0, i32 0} ; [ DW_TAG_subroutine_type ]
!1307 = metadata !{metadata !164, metadata !1283}
!1308 = metadata !{i32 786478, i32 0, metadata !1149, metadata !"to_ulong", metadata !"to_ulong", metadata !"_ZNK11ap_int_baseILi33ELb1ELb1EE8to_ulongEv", metadata !98, i32 1724, metadata !1309, i1 false, i1 false, i32 0, i32 0, null, i32 256, i1 false, null, null, i32 0, metadata !110, i32 1724} ; [ DW_TAG_subprogram ]
!1309 = metadata !{i32 786453, i32 0, metadata !"", i32 0, i32 0, i64 0, i64 0, i64 0, i32 0, null, metadata !1310, i32 0, i32 0} ; [ DW_TAG_subroutine_type ]
!1310 = metadata !{metadata !168, metadata !1283}
!1311 = metadata !{i32 786478, i32 0, metadata !1149, metadata !"to_int64", metadata !"to_int64", metadata !"_ZNK11ap_int_baseILi33ELb1ELb1EE8to_int64Ev", metadata !98, i32 1725, metadata !1312, i1 false, i1 false, i32 0, i32 0, null, i32 256, i1 false, null, null, i32 0, metadata !110, i32 1725} ; [ DW_TAG_subprogram ]
!1312 = metadata !{i32 786453, i32 0, metadata !"", i32 0, i32 0, i64 0, i64 0, i64 0, i32 0, null, metadata !1313, i32 0, i32 0} ; [ DW_TAG_subroutine_type ]
!1313 = metadata !{metadata !172, metadata !1283}
!1314 = metadata !{i32 786478, i32 0, metadata !1149, metadata !"to_uint64", metadata !"to_uint64", metadata !"_ZNK11ap_int_baseILi33ELb1ELb1EE9to_uint64Ev", metadata !98, i32 1726, metadata !1315, i1 false, i1 false, i32 0, i32 0, null, i32 256, i1 false, null, null, i32 0, metadata !110, i32 1726} ; [ DW_TAG_subprogram ]
!1315 = metadata !{i32 786453, i32 0, metadata !"", i32 0, i32 0, i64 0, i64 0, i64 0, i32 0, null, metadata !1316, i32 0, i32 0} ; [ DW_TAG_subroutine_type ]
!1316 = metadata !{metadata !177, metadata !1283}
!1317 = metadata !{i32 786478, i32 0, metadata !1149, metadata !"to_double", metadata !"to_double", metadata !"_ZNK11ap_int_baseILi33ELb1ELb1EE9to_doubleEv", metadata !98, i32 1727, metadata !1318, i1 false, i1 false, i32 0, i32 0, null, i32 256, i1 false, null, null, i32 0, metadata !110, i32 1727} ; [ DW_TAG_subprogram ]
!1318 = metadata !{i32 786453, i32 0, metadata !"", i32 0, i32 0, i64 0, i64 0, i64 0, i32 0, null, metadata !1319, i32 0, i32 0} ; [ DW_TAG_subroutine_type ]
!1319 = metadata !{metadata !191, metadata !1283}
!1320 = metadata !{i32 786478, i32 0, metadata !1149, metadata !"length", metadata !"length", metadata !"_ZNK11ap_int_baseILi33ELb1ELb1EE6lengthEv", metadata !98, i32 1741, metadata !1300, i1 false, i1 false, i32 0, i32 0, null, i32 256, i1 false, null, null, i32 0, metadata !110, i32 1741} ; [ DW_TAG_subprogram ]
!1321 = metadata !{i32 786478, i32 0, metadata !1149, metadata !"length", metadata !"length", metadata !"_ZNVK11ap_int_baseILi33ELb1ELb1EE6lengthEv", metadata !98, i32 1742, metadata !1322, i1 false, i1 false, i32 0, i32 0, null, i32 256, i1 false, null, null, i32 0, metadata !110, i32 1742} ; [ DW_TAG_subprogram ]
!1322 = metadata !{i32 786453, i32 0, metadata !"", i32 0, i32 0, i64 0, i64 0, i64 0, i32 0, null, metadata !1323, i32 0, i32 0} ; [ DW_TAG_subroutine_type ]
!1323 = metadata !{metadata !114, metadata !1324}
!1324 = metadata !{i32 786447, i32 0, metadata !"", i32 0, i32 0, i64 64, i64 64, i64 0, i32 64, metadata !1177} ; [ DW_TAG_pointer_type ]
!1325 = metadata !{i32 786478, i32 0, metadata !1149, metadata !"reverse", metadata !"reverse", metadata !"_ZN11ap_int_baseILi33ELb1ELb1EE7reverseEv", metadata !98, i32 1747, metadata !1326, i1 false, i1 false, i32 0, i32 0, null, i32 256, i1 false, null, null, i32 0, metadata !110, i32 1747} ; [ DW_TAG_subprogram ]
!1326 = metadata !{i32 786453, i32 0, metadata !"", i32 0, i32 0, i64 0, i64 0, i64 0, i32 0, null, metadata !1327, i32 0, i32 0} ; [ DW_TAG_subroutine_type ]
!1327 = metadata !{metadata !1241, metadata !1165}
!1328 = metadata !{i32 786478, i32 0, metadata !1149, metadata !"iszero", metadata !"iszero", metadata !"_ZNK11ap_int_baseILi33ELb1ELb1EE6iszeroEv", metadata !98, i32 1753, metadata !1285, i1 false, i1 false, i32 0, i32 0, null, i32 256, i1 false, null, null, i32 0, metadata !110, i32 1753} ; [ DW_TAG_subprogram ]
!1329 = metadata !{i32 786478, i32 0, metadata !1149, metadata !"is_zero", metadata !"is_zero", metadata !"_ZNK11ap_int_baseILi33ELb1ELb1EE7is_zeroEv", metadata !98, i32 1758, metadata !1285, i1 false, i1 false, i32 0, i32 0, null, i32 256, i1 false, null, null, i32 0, metadata !110, i32 1758} ; [ DW_TAG_subprogram ]
!1330 = metadata !{i32 786478, i32 0, metadata !1149, metadata !"sign", metadata !"sign", metadata !"_ZNK11ap_int_baseILi33ELb1ELb1EE4signEv", metadata !98, i32 1763, metadata !1285, i1 false, i1 false, i32 0, i32 0, null, i32 256, i1 false, null, null, i32 0, metadata !110, i32 1763} ; [ DW_TAG_subprogram ]
!1331 = metadata !{i32 786478, i32 0, metadata !1149, metadata !"clear", metadata !"clear", metadata !"_ZN11ap_int_baseILi33ELb1ELb1EE5clearEi", metadata !98, i32 1771, metadata !1195, i1 false, i1 false, i32 0, i32 0, null, i32 256, i1 false, null, null, i32 0, metadata !110, i32 1771} ; [ DW_TAG_subprogram ]
!1332 = metadata !{i32 786478, i32 0, metadata !1149, metadata !"invert", metadata !"invert", metadata !"_ZN11ap_int_baseILi33ELb1ELb1EE6invertEi", metadata !98, i32 1777, metadata !1195, i1 false, i1 false, i32 0, i32 0, null, i32 256, i1 false, null, null, i32 0, metadata !110, i32 1777} ; [ DW_TAG_subprogram ]
!1333 = metadata !{i32 786478, i32 0, metadata !1149, metadata !"test", metadata !"test", metadata !"_ZNK11ap_int_baseILi33ELb1ELb1EE4testEi", metadata !98, i32 1785, metadata !1334, i1 false, i1 false, i32 0, i32 0, null, i32 256, i1 false, null, null, i32 0, metadata !110, i32 1785} ; [ DW_TAG_subprogram ]
!1334 = metadata !{i32 786453, i32 0, metadata !"", i32 0, i32 0, i64 0, i64 0, i64 0, i32 0, null, metadata !1335, i32 0, i32 0} ; [ DW_TAG_subroutine_type ]
!1335 = metadata !{metadata !116, metadata !1283, metadata !114}
!1336 = metadata !{i32 786478, i32 0, metadata !1149, metadata !"set", metadata !"set", metadata !"_ZN11ap_int_baseILi33ELb1ELb1EE3setEi", metadata !98, i32 1791, metadata !1195, i1 false, i1 false, i32 0, i32 0, null, i32 256, i1 false, null, null, i32 0, metadata !110, i32 1791} ; [ DW_TAG_subprogram ]
!1337 = metadata !{i32 786478, i32 0, metadata !1149, metadata !"set", metadata !"set", metadata !"_ZN11ap_int_baseILi33ELb1ELb1EE3setEib", metadata !98, i32 1797, metadata !1338, i1 false, i1 false, i32 0, i32 0, null, i32 256, i1 false, null, null, i32 0, metadata !110, i32 1797} ; [ DW_TAG_subprogram ]
!1338 = metadata !{i32 786453, i32 0, metadata !"", i32 0, i32 0, i64 0, i64 0, i64 0, i32 0, null, metadata !1339, i32 0, i32 0} ; [ DW_TAG_subroutine_type ]
!1339 = metadata !{null, metadata !1165, metadata !114, metadata !116}
!1340 = metadata !{i32 786478, i32 0, metadata !1149, metadata !"lrotate", metadata !"lrotate", metadata !"_ZN11ap_int_baseILi33ELb1ELb1EE7lrotateEi", metadata !98, i32 1804, metadata !1195, i1 false, i1 false, i32 0, i32 0, null, i32 256, i1 false, null, null, i32 0, metadata !110, i32 1804} ; [ DW_TAG_subprogram ]
!1341 = metadata !{i32 786478, i32 0, metadata !1149, metadata !"rrotate", metadata !"rrotate", metadata !"_ZN11ap_int_baseILi33ELb1ELb1EE7rrotateEi", metadata !98, i32 1813, metadata !1195, i1 false, i1 false, i32 0, i32 0, null, i32 256, i1 false, null, null, i32 0, metadata !110, i32 1813} ; [ DW_TAG_subprogram ]
!1342 = metadata !{i32 786478, i32 0, metadata !1149, metadata !"set_bit", metadata !"set_bit", metadata !"_ZN11ap_int_baseILi33ELb1ELb1EE7set_bitEib", metadata !98, i32 1821, metadata !1338, i1 false, i1 false, i32 0, i32 0, null, i32 256, i1 false, null, null, i32 0, metadata !110, i32 1821} ; [ DW_TAG_subprogram ]
!1343 = metadata !{i32 786478, i32 0, metadata !1149, metadata !"get_bit", metadata !"get_bit", metadata !"_ZNK11ap_int_baseILi33ELb1ELb1EE7get_bitEi", metadata !98, i32 1826, metadata !1334, i1 false, i1 false, i32 0, i32 0, null, i32 256, i1 false, null, null, i32 0, metadata !110, i32 1826} ; [ DW_TAG_subprogram ]
!1344 = metadata !{i32 786478, i32 0, metadata !1149, metadata !"b_not", metadata !"b_not", metadata !"_ZN11ap_int_baseILi33ELb1ELb1EE5b_notEv", metadata !98, i32 1831, metadata !1163, i1 false, i1 false, i32 0, i32 0, null, i32 256, i1 false, null, null, i32 0, metadata !110, i32 1831} ; [ DW_TAG_subprogram ]
!1345 = metadata !{i32 786478, i32 0, metadata !1149, metadata !"countLeadingZeros", metadata !"countLeadingZeros", metadata !"_ZN11ap_int_baseILi33ELb1ELb1EE17countLeadingZerosEv", metadata !98, i32 1838, metadata !1346, i1 false, i1 false, i32 0, i32 0, null, i32 256, i1 false, null, null, i32 0, metadata !110, i32 1838} ; [ DW_TAG_subprogram ]
!1346 = metadata !{i32 786453, i32 0, metadata !"", i32 0, i32 0, i64 0, i64 0, i64 0, i32 0, null, metadata !1347, i32 0, i32 0} ; [ DW_TAG_subroutine_type ]
!1347 = metadata !{metadata !114, metadata !1165}
!1348 = metadata !{i32 786478, i32 0, metadata !1149, metadata !"operator++", metadata !"operator++", metadata !"_ZN11ap_int_baseILi33ELb1ELb1EEppEv", metadata !98, i32 1895, metadata !1326, i1 false, i1 false, i32 0, i32 0, null, i32 256, i1 false, null, null, i32 0, metadata !110, i32 1895} ; [ DW_TAG_subprogram ]
!1349 = metadata !{i32 786478, i32 0, metadata !1149, metadata !"operator--", metadata !"operator--", metadata !"_ZN11ap_int_baseILi33ELb1ELb1EEmmEv", metadata !98, i32 1899, metadata !1326, i1 false, i1 false, i32 0, i32 0, null, i32 256, i1 false, null, null, i32 0, metadata !110, i32 1899} ; [ DW_TAG_subprogram ]
!1350 = metadata !{i32 786478, i32 0, metadata !1149, metadata !"operator++", metadata !"operator++", metadata !"_ZN11ap_int_baseILi33ELb1ELb1EEppEi", metadata !98, i32 1907, metadata !1351, i1 false, i1 false, i32 0, i32 0, null, i32 256, i1 false, null, null, i32 0, metadata !110, i32 1907} ; [ DW_TAG_subprogram ]
!1351 = metadata !{i32 786453, i32 0, metadata !"", i32 0, i32 0, i64 0, i64 0, i64 0, i32 0, null, metadata !1352, i32 0, i32 0} ; [ DW_TAG_subroutine_type ]
!1352 = metadata !{metadata !1170, metadata !1165, metadata !114}
!1353 = metadata !{i32 786478, i32 0, metadata !1149, metadata !"operator--", metadata !"operator--", metadata !"_ZN11ap_int_baseILi33ELb1ELb1EEmmEi", metadata !98, i32 1912, metadata !1351, i1 false, i1 false, i32 0, i32 0, null, i32 256, i1 false, null, null, i32 0, metadata !110, i32 1912} ; [ DW_TAG_subprogram ]
!1354 = metadata !{i32 786478, i32 0, metadata !1149, metadata !"operator+", metadata !"operator+", metadata !"_ZNK11ap_int_baseILi33ELb1ELb1EEpsEv", metadata !98, i32 1921, metadata !1355, i1 false, i1 false, i32 0, i32 0, null, i32 256, i1 false, null, null, i32 0, metadata !110, i32 1921} ; [ DW_TAG_subprogram ]
!1355 = metadata !{i32 786453, i32 0, metadata !"", i32 0, i32 0, i64 0, i64 0, i64 0, i32 0, null, metadata !1356, i32 0, i32 0} ; [ DW_TAG_subroutine_type ]
!1356 = metadata !{metadata !1149, metadata !1283}
!1357 = metadata !{i32 786478, i32 0, metadata !1149, metadata !"operator!", metadata !"operator!", metadata !"_ZNK11ap_int_baseILi33ELb1ELb1EEntEv", metadata !98, i32 1927, metadata !1285, i1 false, i1 false, i32 0, i32 0, null, i32 256, i1 false, null, null, i32 0, metadata !110, i32 1927} ; [ DW_TAG_subprogram ]
!1358 = metadata !{i32 786478, i32 0, metadata !1149, metadata !"operator-", metadata !"operator-", metadata !"_ZNK11ap_int_baseILi33ELb1ELb1EEngEv", metadata !98, i32 1932, metadata !1359, i1 false, i1 false, i32 0, i32 0, null, i32 256, i1 false, null, null, i32 0, metadata !110, i32 1932} ; [ DW_TAG_subprogram ]
!1359 = metadata !{i32 786453, i32 0, metadata !"", i32 0, i32 0, i64 0, i64 0, i64 0, i32 0, null, metadata !1360, i32 0, i32 0} ; [ DW_TAG_subroutine_type ]
!1360 = metadata !{metadata !1361, metadata !1283}
!1361 = metadata !{i32 786434, null, metadata !"ap_int_base<34, true, true>", metadata !98, i32 651, i32 0, i32 0, i32 0, i32 4, null, null, i32 0} ; [ DW_TAG_class_type ]
!1362 = metadata !{i32 786478, i32 0, metadata !1149, metadata !"range", metadata !"range", metadata !"_ZN11ap_int_baseILi33ELb1ELb1EE5rangeEii", metadata !98, i32 2062, metadata !1363, i1 false, i1 false, i32 0, i32 0, null, i32 256, i1 false, null, null, i32 0, metadata !110, i32 2062} ; [ DW_TAG_subprogram ]
!1363 = metadata !{i32 786453, i32 0, metadata !"", i32 0, i32 0, i64 0, i64 0, i64 0, i32 0, null, metadata !1364, i32 0, i32 0} ; [ DW_TAG_subroutine_type ]
!1364 = metadata !{metadata !1365, metadata !1165, metadata !114, metadata !114}
!1365 = metadata !{i32 786434, null, metadata !"ap_range_ref<33, true>", metadata !98, i32 925, i32 0, i32 0, i32 0, i32 4, null, null, i32 0} ; [ DW_TAG_class_type ]
!1366 = metadata !{i32 786478, i32 0, metadata !1149, metadata !"operator()", metadata !"operator()", metadata !"_ZN11ap_int_baseILi33ELb1ELb1EEclEii", metadata !98, i32 2068, metadata !1363, i1 false, i1 false, i32 0, i32 0, null, i32 256, i1 false, null, null, i32 0, metadata !110, i32 2068} ; [ DW_TAG_subprogram ]
!1367 = metadata !{i32 786478, i32 0, metadata !1149, metadata !"range", metadata !"range", metadata !"_ZNK11ap_int_baseILi33ELb1ELb1EE5rangeEii", metadata !98, i32 2074, metadata !1368, i1 false, i1 false, i32 0, i32 0, null, i32 256, i1 false, null, null, i32 0, metadata !110, i32 2074} ; [ DW_TAG_subprogram ]
!1368 = metadata !{i32 786453, i32 0, metadata !"", i32 0, i32 0, i64 0, i64 0, i64 0, i32 0, null, metadata !1369, i32 0, i32 0} ; [ DW_TAG_subroutine_type ]
!1369 = metadata !{metadata !1365, metadata !1283, metadata !114, metadata !114}
!1370 = metadata !{i32 786478, i32 0, metadata !1149, metadata !"operator()", metadata !"operator()", metadata !"_ZNK11ap_int_baseILi33ELb1ELb1EEclEii", metadata !98, i32 2080, metadata !1368, i1 false, i1 false, i32 0, i32 0, null, i32 256, i1 false, null, null, i32 0, metadata !110, i32 2080} ; [ DW_TAG_subprogram ]
!1371 = metadata !{i32 786478, i32 0, metadata !1149, metadata !"operator[]", metadata !"operator[]", metadata !"_ZN11ap_int_baseILi33ELb1ELb1EEixEi", metadata !98, i32 2099, metadata !1372, i1 false, i1 false, i32 0, i32 0, null, i32 256, i1 false, null, null, i32 0, metadata !110, i32 2099} ; [ DW_TAG_subprogram ]
!1372 = metadata !{i32 786453, i32 0, metadata !"", i32 0, i32 0, i64 0, i64 0, i64 0, i32 0, null, metadata !1373, i32 0, i32 0} ; [ DW_TAG_subroutine_type ]
!1373 = metadata !{metadata !1374, metadata !1165, metadata !114}
!1374 = metadata !{i32 786434, null, metadata !"ap_bit_ref<33, true>", metadata !98, i32 1249, i64 128, i64 64, i32 0, i32 0, null, metadata !1375, i32 0, null, metadata !1408} ; [ DW_TAG_class_type ]
!1375 = metadata !{metadata !1376, metadata !1377, metadata !1378, metadata !1384, metadata !1388, metadata !1392, metadata !1393, metadata !1397, metadata !1400, metadata !1401, metadata !1404, metadata !1405}
!1376 = metadata !{i32 786445, metadata !1374, metadata !"d_bv", metadata !98, i32 1250, i64 64, i64 64, i64 0, i32 0, metadata !1241} ; [ DW_TAG_member ]
!1377 = metadata !{i32 786445, metadata !1374, metadata !"d_index", metadata !98, i32 1251, i64 32, i64 32, i64 64, i32 0, metadata !114} ; [ DW_TAG_member ]
!1378 = metadata !{i32 786478, i32 0, metadata !1374, metadata !"ap_bit_ref", metadata !"ap_bit_ref", metadata !"", metadata !98, i32 1254, metadata !1379, i1 false, i1 false, i32 0, i32 0, null, i32 256, i1 false, null, null, i32 0, metadata !110, i32 1254} ; [ DW_TAG_subprogram ]
!1379 = metadata !{i32 786453, i32 0, metadata !"", i32 0, i32 0, i64 0, i64 0, i64 0, i32 0, null, metadata !1380, i32 0, i32 0} ; [ DW_TAG_subroutine_type ]
!1380 = metadata !{null, metadata !1381, metadata !1382}
!1381 = metadata !{i32 786447, i32 0, metadata !"", i32 0, i32 0, i64 64, i64 64, i64 0, i32 64, metadata !1374} ; [ DW_TAG_pointer_type ]
